EXPORTS
	_Z6E32Dll10TDllReason @ 1 NONAME
	_ZN12CMDXMLParser11ParseSourceEP24MMDXMLParserDataProvider @ 2 NONAME
	_ZN12CMDXMLParser12DetachXMLDocEv @ 3 NONAME
	_ZN12CMDXMLParser15SetStoreInvalidEi @ 4 NONAME
	_ZN12CMDXMLParser18SetEntityConverterEP21CMDXMLEntityConverter @ 5 NONAME
	_ZN12CMDXMLParser23SetSourceCharacterWidthENS_26TMDXMLParserInputCharWidthE @ 6 NONAME
	_ZN12CMDXMLParser28PlaceholderForRemovedExport1EP20MMDXMLParserObserver @ 7 NONAME
	_ZN12CMDXMLParser28PlaceholderForRemovedExport2EP20MMDXMLParserObserverP7MXMLDtd @ 8 NONAME
	_ZN12CMDXMLParser28PlaceholderForRemovedExport3Ev @ 9 NONAME
	_ZN12CMDXMLParser4NewLEP20MMDXMLParserObserver @ 10 NONAME
	_ZN12CMDXMLParser4NewLEP20MMDXMLParserObserverP7MXMLDtd @ 11 NONAME
	_ZN12CMDXMLParser5NewLCEP20MMDXMLParserObserver @ 12 NONAME
	_ZN12CMDXMLParser5NewLCEP20MMDXMLParserObserverP7MXMLDtd @ 13 NONAME
	_ZN12CMDXMLParser8DoCancelEv @ 14 NONAME
	_ZN12CMDXMLParser8RunErrorEi @ 15 NONAME
	_ZN12CMDXMLParser8SetErrorEi21TXMLErrorCodeSeverity @ 16 NONAME
	_ZN12CMDXMLParser9ParseFileE3RFsRK7TDesC16 @ 17 NONAME
	_ZN12CMDXMLParserD0Ev @ 18 NONAME
	_ZN12CMDXMLParserD1Ev @ 19 NONAME
	_ZN12CMDXMLParserD2Ev @ 20 NONAME
	_ZN14CMDXMLComposer11ComposeFileE3RFsRK7TDesC16P14CMDXMLDocument12TXMLFileType @ 21 NONAME
	_ZN14CMDXMLComposer11OutputDataLERK7TDesC16 @ 22 NONAME
	_ZN14CMDXMLComposer14ComposeEndTagLER10CMDXMLNode @ 23 NONAME
	_ZN14CMDXMLComposer16ComposeStartTagLER10CMDXMLNode @ 24 NONAME
	_ZN14CMDXMLComposer16OutputAttributeLERK7TDesC16S2_ @ 25 NONAME
	_ZN14CMDXMLComposer17CalculateFileSizeERiP14CMDXMLDocument12TXMLFileType @ 26 NONAME
	_ZN14CMDXMLComposer18SetEntityConverterEP21CMDXMLEntityConverter @ 27 NONAME
	_ZN14CMDXMLComposer22OutputEndOfElementTagLEi @ 28 NONAME
	_ZN14CMDXMLComposer24OutputStartOfElementTagLERK7TDesC16 @ 29 NONAME
	_ZN14CMDXMLComposer28PlaceholderForRemovedExport1EP22MMDXMLComposerObserver @ 30 NONAME
	_ZN14CMDXMLComposer28PlaceholderForRemovedExport2Ev @ 31 NONAME
	_ZN14CMDXMLComposer28PlaceholderForRemovedExport3Ev @ 32 NONAME
	_ZN14CMDXMLComposer4NewLEP22MMDXMLComposerObserver @ 33 NONAME
	_ZN14CMDXMLComposer4NewLEP22MMDXMLComposerObserveri @ 34 NONAME
	_ZN14CMDXMLComposer5NewLCEP22MMDXMLComposerObserver @ 35 NONAME
	_ZN14CMDXMLComposer5NewLCEP22MMDXMLComposerObserveri @ 36 NONAME
	_ZN14CMDXMLComposer8DoCancelEv @ 37 NONAME
	_ZN14CMDXMLComposer8RunErrorEi @ 38 NONAME
	_ZN14CMDXMLComposer8SetErrorEi21TXMLErrorCodeSeverity @ 39 NONAME
	_ZN14CMDXMLComposerD0Ev @ 40 NONAME
	_ZN14CMDXMLComposerD1Ev @ 41 NONAME
	_ZN14CMDXMLComposerD2Ev @ 42 NONAME
	_ZN21CMDXMLEntityConverter19OutputComposedTextLEP14CMDXMLComposerRK7TDesC16 @ 43 NONAME
	_ZN21CMDXMLEntityConverterC1Ev @ 44 NONAME
	_ZN21CMDXMLEntityConverterC2Ev @ 45 NONAME
	_ZN21CMDXMLEntityConverterD0Ev @ 46 NONAME
	_ZN21CMDXMLEntityConverterD1Ev @ 47 NONAME
	_ZN21CMDXMLEntityConverterD2Ev @ 48 NONAME
	_ZNK12CMDXMLParser13ErrorSeverityEv @ 49 NONAME
	_ZNK12CMDXMLParser5ErrorEv @ 50 NONAME
	_ZNK14CMDXMLComposer13ErrorSeverityEv @ 51 NONAME
	_ZNK14CMDXMLComposer15EntityConverterEv @ 52 NONAME
	_ZNK14CMDXMLComposer5ErrorEv @ 53 NONAME
	_ZTI12CMDXMLParser @ 54 NONAME ; #<TI>#
	_ZTI14CMDXMLComposer @ 55 NONAME ; #<TI>#
	_ZTI21CMDXMLEntityConverter @ 56 NONAME ; #<TI>#
	_ZTV12CMDXMLParser @ 57 NONAME ; #<VT>#
	_ZTV14CMDXMLComposer @ 58 NONAME ; #<VT>#
	_ZTV21CMDXMLEntityConverter @ 59 NONAME ; #<VT>#
	_ZTI26CMDXMLParserFileDataSource @ 60 NONAME ; #<TI>#
	_ZTV26CMDXMLParserFileDataSource @ 61 NONAME ; #<VT>#

