EXPORTS
	?AddTrustedCertFromBufferL@CXmlSecSign@@QAEXABVTDesC8@@@Z @ 1 NONAME ; void CXmlSecSign::AddTrustedCertFromBufferL(class TDesC8 const &)
	?AddTrustedCertFromFileL@CXmlSecSign@@QAEXABVTDesC8@@@Z @ 2 NONAME ; void CXmlSecSign::AddTrustedCertFromFileL(class TDesC8 const &)
	?CreateTemplateL@CXmlSecEncrypt@@QAEABVRXmlEngDocument@@W4TXmlSecKeyType@1@W4TXmlSecDataType@1@@Z @ 3 NONAME ; class RXmlEngDocument const & CXmlSecEncrypt::CreateTemplateL(enum CXmlSecEncrypt::TXmlSecKeyType, enum CXmlSecEncrypt::TXmlSecDataType)
	?CreateTemplateL@CXmlSecSign@@QAEABVRXmlEngDocument@@W4TXmlSecKeyType@1@AAV?$RArray@VTXmlEngElement@@@@ABVTDesC8@@HI2H@Z @ 4 NONAME ; class RXmlEngDocument const & CXmlSecSign::CreateTemplateL(enum CXmlSecSign::TXmlSecKeyType, class RArray<class TXmlEngElement> &, class TDesC8 const &, int, unsigned int, class TDesC8 const &, int)
	?CreateTemplateL@CXmlSecSign@@QAEABVRXmlEngDocument@@W4TXmlSecKeyType@1@HIABVTDesC8@@H@Z @ 5 NONAME ; class RXmlEngDocument const & CXmlSecSign::CreateTemplateL(enum CXmlSecSign::TXmlSecKeyType, int, unsigned int, class TDesC8 const &, int)
	?CurrentTemplate@CXmlSecEncrypt@@QBEABVRXmlEngDocument@@XZ @ 6 NONAME ; class RXmlEngDocument const & CXmlSecEncrypt::CurrentTemplate(void) const
	?CurrentTemplate@CXmlSecSign@@QBEABVRXmlEngDocument@@XZ @ 7 NONAME ; class RXmlEngDocument const & CXmlSecSign::CurrentTemplate(void) const
	?DecryptXmlDocumentKeyFromBufferL@CXmlSecEncrypt@@QAEPAVHBufC8@@AAVRXmlEngDocument@@ABVTDesC8@@1W4TXmlSecKeyType@1@@Z @ 8 NONAME ; class HBufC8 * CXmlSecEncrypt::DecryptXmlDocumentKeyFromBufferL(class RXmlEngDocument &, class TDesC8 const &, class TDesC8 const &, enum CXmlSecEncrypt::TXmlSecKeyType)
	?DecryptXmlDocumentKeyFromFileL@CXmlSecEncrypt@@QAEPAVHBufC8@@AAVRXmlEngDocument@@ABVTDesC8@@1W4TXmlSecKeyType@1@@Z @ 9 NONAME ; class HBufC8 * CXmlSecEncrypt::DecryptXmlDocumentKeyFromFileL(class RXmlEngDocument &, class TDesC8 const &, class TDesC8 const &, enum CXmlSecEncrypt::TXmlSecKeyType)
	?DecryptXmlDocumentL@CXmlSecEncrypt@@QAEPAVHBufC8@@AAVRXmlEngDocument@@@Z @ 10 NONAME ; class HBufC8 * CXmlSecEncrypt::DecryptXmlDocumentL(class RXmlEngDocument &)
	?DecryptXmlNodeKeyFromBufferL@CXmlSecEncrypt@@QAEPAVHBufC8@@VTXmlEngElement@@ABVTDesC8@@1W4TXmlSecKeyType@1@@Z @ 11 NONAME ; class HBufC8 * CXmlSecEncrypt::DecryptXmlNodeKeyFromBufferL(class TXmlEngElement, class TDesC8 const &, class TDesC8 const &, enum CXmlSecEncrypt::TXmlSecKeyType)
	?DecryptXmlNodeKeyFromFileL@CXmlSecEncrypt@@QAEPAVHBufC8@@VTXmlEngElement@@ABVTDesC8@@1W4TXmlSecKeyType@1@@Z @ 12 NONAME ; class HBufC8 * CXmlSecEncrypt::DecryptXmlNodeKeyFromFileL(class TXmlEngElement, class TDesC8 const &, class TDesC8 const &, enum CXmlSecEncrypt::TXmlSecKeyType)
	?DecryptXmlNodeL@CXmlSecEncrypt@@QAEPAVHBufC8@@VTXmlEngElement@@@Z @ 13 NONAME ; class HBufC8 * CXmlSecEncrypt::DecryptXmlNodeL(class TXmlEngElement)
	?DestroyCurrentTemplate@CXmlSecEncrypt@@QAEXXZ @ 14 NONAME ; void CXmlSecEncrypt::DestroyCurrentTemplate(void)
	?DestroyCurrentTemplate@CXmlSecSign@@QAEXXZ @ 15 NONAME ; void CXmlSecSign::DestroyCurrentTemplate(void)
	?EncryptDataL@CXmlSecEncrypt@@QAE?AVRXmlEngDocument@@ABVTDesC8@@@Z @ 16 NONAME ; class RXmlEngDocument CXmlSecEncrypt::EncryptDataL(class TDesC8 const &)
	?EncryptXmlDocumentKeyFromBufferL@CXmlSecEncrypt@@QAEXAAVRXmlEngDocument@@0ABVTDesC8@@1W4TXmlSecKeyType@1@@Z @ 17 NONAME ; void CXmlSecEncrypt::EncryptXmlDocumentKeyFromBufferL(class RXmlEngDocument &, class RXmlEngDocument &, class TDesC8 const &, class TDesC8 const &, enum CXmlSecEncrypt::TXmlSecKeyType)
	?EncryptXmlDocumentKeyFromFileL@CXmlSecEncrypt@@QAEXAAVRXmlEngDocument@@0ABVTDesC8@@1W4TXmlSecKeyType@1@@Z @ 18 NONAME ; void CXmlSecEncrypt::EncryptXmlDocumentKeyFromFileL(class RXmlEngDocument &, class RXmlEngDocument &, class TDesC8 const &, class TDesC8 const &, enum CXmlSecEncrypt::TXmlSecKeyType)
	?EncryptXmlDocumentL@CXmlSecEncrypt@@QAEXAAVRXmlEngDocument@@@Z @ 19 NONAME ; void CXmlSecEncrypt::EncryptXmlDocumentL(class RXmlEngDocument &)
	?EncryptXmlNodeKeyFromBufferL@CXmlSecEncrypt@@QAEXVTXmlEngElement@@AAVRXmlEngDocument@@ABVTDesC8@@2W4TXmlSecKeyType@1@@Z @ 20 NONAME ; void CXmlSecEncrypt::EncryptXmlNodeKeyFromBufferL(class TXmlEngElement, class RXmlEngDocument &, class TDesC8 const &, class TDesC8 const &, enum CXmlSecEncrypt::TXmlSecKeyType)
	?EncryptXmlNodeKeyFromFileL@CXmlSecEncrypt@@QAEXVTXmlEngElement@@AAVRXmlEngDocument@@ABVTDesC8@@2W4TXmlSecKeyType@1@@Z @ 21 NONAME ; void CXmlSecEncrypt::EncryptXmlNodeKeyFromFileL(class TXmlEngElement, class RXmlEngDocument &, class TDesC8 const &, class TDesC8 const &, enum CXmlSecEncrypt::TXmlSecKeyType)
	?EncryptXmlNodeL@CXmlSecEncrypt@@QAEXVTXmlEngElement@@@Z @ 22 NONAME ; void CXmlSecEncrypt::EncryptXmlNodeL(class TXmlEngElement)
	?NewL@CXmlSecEncrypt@@SAPAV1@XZ @ 23 NONAME ; class CXmlSecEncrypt * CXmlSecEncrypt::NewL(void)
	?NewL@CXmlSecSign@@SAPAV1@XZ @ 24 NONAME ; class CXmlSecSign * CXmlSecSign::NewL(void)
	?NewLC@CXmlSecEncrypt@@SAPAV1@XZ @ 25 NONAME ; class CXmlSecEncrypt * CXmlSecEncrypt::NewLC(void)
	?NewLC@CXmlSecSign@@SAPAV1@XZ @ 26 NONAME ; class CXmlSecSign * CXmlSecSign::NewLC(void)
	?SetCertFromBufferL@CXmlSecSign@@QAEXABVTDesC8@@@Z @ 27 NONAME ; void CXmlSecSign::SetCertFromBufferL(class TDesC8 const &)
	?SetCertFromFileL@CXmlSecSign@@QAEXABVTDesC8@@@Z @ 28 NONAME ; void CXmlSecSign::SetCertFromFileL(class TDesC8 const &)
	?SetKeyFromBufferL@CXmlSecEncrypt@@QAEXABVTDesC8@@0W4TXmlSecKeyType@1@@Z @ 29 NONAME ; void CXmlSecEncrypt::SetKeyFromBufferL(class TDesC8 const &, class TDesC8 const &, enum CXmlSecEncrypt::TXmlSecKeyType)
	?SetKeyFromBufferL@CXmlSecSign@@QAEXABVTDesC8@@0W4TXmlSecKeyType@1@@Z @ 30 NONAME ; void CXmlSecSign::SetKeyFromBufferL(class TDesC8 const &, class TDesC8 const &, enum CXmlSecSign::TXmlSecKeyType)
	?SetKeyFromFileL@CXmlSecEncrypt@@QAEXABVTDesC8@@0W4TXmlSecKeyType@1@@Z @ 31 NONAME ; void CXmlSecEncrypt::SetKeyFromFileL(class TDesC8 const &, class TDesC8 const &, enum CXmlSecEncrypt::TXmlSecKeyType)
	?SetKeyFromFileL@CXmlSecSign@@QAEXABVTDesC8@@0W4TXmlSecKeyType@1@@Z @ 32 NONAME ; void CXmlSecSign::SetKeyFromFileL(class TDesC8 const &, class TDesC8 const &, enum CXmlSecSign::TXmlSecKeyType)
	?SetKeyInfoL@CXmlSecEncrypt@@QAEXABVTDesC8@@@Z @ 33 NONAME ; void CXmlSecEncrypt::SetKeyInfoL(class TDesC8 const &)
	?SetKeyInfoL@CXmlSecEncrypt@@QAEXVTXmlEngElement@@@Z @ 34 NONAME ; void CXmlSecEncrypt::SetKeyInfoL(class TXmlEngElement)
	?SetKeyInfoL@CXmlSecSign@@QAEXABVTDesC8@@@Z @ 35 NONAME ; void CXmlSecSign::SetKeyInfoL(class TDesC8 const &)
	?SetKeyInfoL@CXmlSecSign@@QAEXVTXmlEngElement@@@Z @ 36 NONAME ; void CXmlSecSign::SetKeyInfoL(class TXmlEngElement)
	?SetTemplateFromBufferL@CXmlSecEncrypt@@QAEXABVTDesC8@@@Z @ 37 NONAME ; void CXmlSecEncrypt::SetTemplateFromBufferL(class TDesC8 const &)
	?SetTemplateFromBufferL@CXmlSecSign@@QAEXABVTDesC8@@@Z @ 38 NONAME ; void CXmlSecSign::SetTemplateFromBufferL(class TDesC8 const &)
	?SetTemplateFromFileL@CXmlSecEncrypt@@QAEXAAVRFs@@ABVTDesC8@@@Z @ 39 NONAME ; void CXmlSecEncrypt::SetTemplateFromFileL(class RFs &, class TDesC8 const &)
	?SetTemplateFromFileL@CXmlSecEncrypt@@QAEXABVTDesC8@@@Z @ 40 NONAME ; void CXmlSecEncrypt::SetTemplateFromFileL(class TDesC8 const &)
	?SetTemplateFromFileL@CXmlSecSign@@QAEXAAVRFs@@ABVTDesC8@@@Z @ 41 NONAME ; void CXmlSecSign::SetTemplateFromFileL(class RFs &, class TDesC8 const &)
	?SetTemplateFromFileL@CXmlSecSign@@QAEXABVTDesC8@@@Z @ 42 NONAME ; void CXmlSecSign::SetTemplateFromFileL(class TDesC8 const &)
	?SetTemplateL@CXmlSecEncrypt@@QAEXABVRXmlEngDocument@@@Z @ 43 NONAME ; void CXmlSecEncrypt::SetTemplateL(class RXmlEngDocument const &)
	?SetTemplateL@CXmlSecSign@@QAEXABVRXmlEngDocument@@@Z @ 44 NONAME ; void CXmlSecSign::SetTemplateL(class RXmlEngDocument const &)
	?SignXmlDocumentKeyFromBufferL@CXmlSecSign@@QAE?AVTXmlEngElement@@AAVRXmlEngDocument@@0ABVTDesC8@@1W4TXmlSecKeyType@1@@Z @ 45 NONAME ; class TXmlEngElement CXmlSecSign::SignXmlDocumentKeyFromBufferL(class RXmlEngDocument &, class RXmlEngDocument &, class TDesC8 const &, class TDesC8 const &, enum CXmlSecSign::TXmlSecKeyType)
	?SignXmlDocumentKeyFromBufferL@CXmlSecSign@@QAE?AVTXmlEngElement@@AAVRXmlEngDocument@@ABVTDesC8@@1W4TXmlSecKeyType@1@@Z @ 46 NONAME ; class TXmlEngElement CXmlSecSign::SignXmlDocumentKeyFromBufferL(class RXmlEngDocument &, class TDesC8 const &, class TDesC8 const &, enum CXmlSecSign::TXmlSecKeyType)
	?SignXmlDocumentKeyFromFileL@CXmlSecSign@@QAE?AVTXmlEngElement@@AAVRXmlEngDocument@@0ABVTDesC8@@1W4TXmlSecKeyType@1@@Z @ 47 NONAME ; class TXmlEngElement CXmlSecSign::SignXmlDocumentKeyFromFileL(class RXmlEngDocument &, class RXmlEngDocument &, class TDesC8 const &, class TDesC8 const &, enum CXmlSecSign::TXmlSecKeyType)
	?SignXmlDocumentKeyFromFileL@CXmlSecSign@@QAE?AVTXmlEngElement@@AAVRXmlEngDocument@@ABVTDesC8@@1W4TXmlSecKeyType@1@@Z @ 48 NONAME ; class TXmlEngElement CXmlSecSign::SignXmlDocumentKeyFromFileL(class RXmlEngDocument &, class TDesC8 const &, class TDesC8 const &, enum CXmlSecSign::TXmlSecKeyType)
	?SignXmlDocumentL@CXmlSecSign@@QAE?AVTXmlEngElement@@AAVRXmlEngDocument@@H@Z @ 49 NONAME ; class TXmlEngElement CXmlSecSign::SignXmlDocumentL(class RXmlEngDocument &, int)
	?SignXmlNodesL@CXmlSecSign@@QAE?AVTXmlEngElement@@AAV?$RArray@VTXmlEngElement@@@@H@Z @ 50 NONAME ; class TXmlEngElement CXmlSecSign::SignXmlNodesL(class RArray<class TXmlEngElement> &, int)
	?VerifyXmlDocumentKeyFromBufferL@CXmlSecSign@@QAEHABVRXmlEngDocument@@ABVTDesC8@@1W4TXmlSecKeyType@1@@Z @ 51 NONAME ; int CXmlSecSign::VerifyXmlDocumentKeyFromBufferL(class RXmlEngDocument const &, class TDesC8 const &, class TDesC8 const &, enum CXmlSecSign::TXmlSecKeyType)
	?VerifyXmlDocumentKeyFromFileL@CXmlSecSign@@QAEHABVRXmlEngDocument@@ABVTDesC8@@1W4TXmlSecKeyType@1@@Z @ 52 NONAME ; int CXmlSecSign::VerifyXmlDocumentKeyFromFileL(class RXmlEngDocument const &, class TDesC8 const &, class TDesC8 const &, enum CXmlSecSign::TXmlSecKeyType)
	?VerifyXmlDocumentL@CXmlSecSign@@QAEHABVRXmlEngDocument@@W4TXmlSecVerificationKeyRepository@1@@Z @ 53 NONAME ; int CXmlSecSign::VerifyXmlDocumentL(class RXmlEngDocument const &, enum CXmlSecSign::TXmlSecVerificationKeyRepository)
	?VerifyXmlNodeKeyFromBufferL@CXmlSecSign@@QAEHVTXmlEngElement@@ABVTDesC8@@1W4TXmlSecKeyType@1@@Z @ 54 NONAME ; int CXmlSecSign::VerifyXmlNodeKeyFromBufferL(class TXmlEngElement, class TDesC8 const &, class TDesC8 const &, enum CXmlSecSign::TXmlSecKeyType)
	?VerifyXmlNodeKeyFromFileL@CXmlSecSign@@QAEHVTXmlEngElement@@ABVTDesC8@@1W4TXmlSecKeyType@1@@Z @ 55 NONAME ; int CXmlSecSign::VerifyXmlNodeKeyFromFileL(class TXmlEngElement, class TDesC8 const &, class TDesC8 const &, enum CXmlSecSign::TXmlSecKeyType)
	?VerifyXmlNodeL@CXmlSecSign@@QAEHVTXmlEngElement@@W4TXmlSecVerificationKeyRepository@1@@Z @ 56 NONAME ; int CXmlSecSign::VerifyXmlNodeL(class TXmlEngElement, enum CXmlSecSign::TXmlSecVerificationKeyRepository)
	?XmlSecCleanup@@YAXPAX@Z @ 57 NONAME ; void XmlSecCleanup(void *)
	?XmlSecInitializeL@@YAXXZ @ 58 NONAME ; void XmlSecInitializeL(void)
	?XmlSecPopAndDestroy@@YAXXZ @ 59 NONAME ; void XmlSecPopAndDestroy(void)
	?XmlSecPushL@@YAXXZ @ 60 NONAME ; void XmlSecPushL(void)

