EXPORTS
	_ZN3Xml10RAttribute4CopyEv @ 1 NONAME
	_ZN3Xml10RAttribute4OpenERK7RStringS3_S3_NS_14TAttributeTypeE @ 2 NONAME
	_ZN3Xml10RAttribute4OpenERK7RStringS3_S3_S3_NS_14TAttributeTypeE @ 3 NONAME
	_ZN3Xml10RAttribute5CloseEv @ 4 NONAME
	_ZN3Xml10RAttribute8SetValueERK7RString @ 5 NONAME
	_ZN3Xml10RAttributeC1Ev @ 6 NONAME
	_ZN3Xml10RAttributeC2Ev @ 7 NONAME
	_ZN3Xml17CCharSetConverter16PrepareCharConvLERjRK6TDesC8 @ 8 NONAME
	_ZN3Xml17CCharSetConverter16PrepareCharConvLERji @ 9 NONAME
	_ZN3Xml17CCharSetConverter17ConvertToUnicodeLEmRK6TDesC8RP7HBufC16 @ 10 NONAME
	_ZN3Xml17CCharSetConverter19ConvertFromUnicodeLERK7TDesC16mRP6HBufC8 @ 11 NONAME
	_ZN3Xml17CCharSetConverter25PrepareToConvertToOrFromLEm @ 12 NONAME
	_ZN3Xml17CCharSetConverter32ConvertUcs4CharactersToEncodingLEPmimRP6HBufC8 @ 13 NONAME
	_ZN3Xml17CCharSetConverter44ConvertCharacterSetIdentifierToStandardNameLEmRP6HBufC8 @ 14 NONAME
	_ZN3Xml19CDictionaryCodePage22ConstructIndexMappingLEPKiNS0_11TStringTypeE @ 15 NONAME
	_ZN3Xml19CDictionaryCodePage4NewLEPK12TStringTableS3_S3_h @ 16 NONAME
	_ZN3Xml19CDictionaryCodePageD0Ev @ 17 NONAME
	_ZN3Xml19CDictionaryCodePageD1Ev @ 18 NONAME
	_ZN3Xml19CDictionaryCodePageD2Ev @ 19 NONAME
	_ZN3Xml19RDocumentParameters4OpenERK7RString @ 20 NONAME
	_ZN3Xml19RDocumentParameters5CloseEv @ 21 NONAME
	_ZN3Xml19RDocumentParametersC1Ev @ 22 NONAME
	_ZN3Xml19RDocumentParametersC2Ev @ 23 NONAME
	_ZN3Xml27RStringDictionaryCollection10StringPoolEv @ 24 NONAME
	_ZN3Xml27RStringDictionaryCollection15OpenDictionaryLERK6TDesC8 @ 25 NONAME
	_ZN3Xml27RStringDictionaryCollection5CloseEv @ 26 NONAME
	_ZN3Xml27RStringDictionaryCollection5OpenLEv @ 27 NONAME
	_ZN3Xml27RStringDictionaryCollectionC1Ev @ 28 NONAME
	_ZN3Xml27RStringDictionaryCollectionC2Ev @ 29 NONAME
	_ZN3Xml6ParseLERNS_7CParserER3RFsRK7TDesC16 @ 30 NONAME
	_ZN3Xml6ParseLERNS_7CParserERK6TDesC8 @ 31 NONAME
	_ZN3Xml7CParser10StringPoolEv @ 32 NONAME
	_ZN3Xml7CParser11ParseBeginLERK6TDesC8 @ 33 NONAME
	_ZN3Xml7CParser11ParseBeginLEv @ 34 NONAME
	_ZN3Xml7CParser13EnableFeatureEi @ 35 NONAME
	_ZN3Xml7CParser14DisableFeatureEi @ 36 NONAME
	_ZN3Xml7CParser18SetProcessorChainLERK6RArrayI4TUidE @ 37 NONAME
	_ZN3Xml7CParser23AddPreloadedDictionaryLERK6TDesC8 @ 38 NONAME
	_ZN3Xml7CParser26StringDictionaryCollectionEv @ 39 NONAME
	_ZN3Xml7CParser4NewLERK6TDesC8RNS_15MContentHandlerE @ 40 NONAME
	_ZN3Xml7CParser5NewLCERK6TDesC8RNS_15MContentHandlerE @ 41 NONAME
	_ZN3Xml7CParser6ParseLERK6TDesC8 @ 42 NONAME
	_ZN3Xml7CParser9ParseEndLEv @ 43 NONAME
	_ZN3Xml8RTagInfo4CopyEv @ 44 NONAME
	_ZN3Xml8RTagInfo4OpenERK7RStringS3_S3_ @ 45 NONAME
	_ZN3Xml8RTagInfo5CloseEv @ 46 NONAME
	_ZN3Xml8RTagInfoC1Ev @ 47 NONAME
	_ZN3Xml8RTagInfoC2Ev @ 48 NONAME
	_ZNK3Xml10RAttribute4TypeEv @ 49 NONAME
	_ZNK3Xml10RAttribute5ValueEv @ 50 NONAME
	_ZNK3Xml10RAttribute9AttributeEv @ 51 NONAME
	_ZNK3Xml19CDictionaryCodePage11StringTableENS0_11TStringTypeE @ 52 NONAME
	_ZNK3Xml19CDictionaryCodePage24StringPoolIndexFromTokenEiNS0_11TStringTypeE @ 53 NONAME
	_ZNK3Xml19CDictionaryCodePage24TokenFromStringPoolIndexEiNS0_11TStringTypeE @ 54 NONAME
	_ZNK3Xml19CDictionaryCodePage8CodePageEv @ 55 NONAME
	_ZNK3Xml19RDocumentParameters16CharacterSetNameEv @ 56 NONAME
	_ZNK3Xml27RStringDictionaryCollection18CurrentDictionaryLEv @ 57 NONAME
	_ZNK3Xml7CParser16IsFeatureEnabledEi @ 58 NONAME
	_ZNK3Xml8RTagInfo3UriEv @ 59 NONAME
	_ZNK3Xml8RTagInfo6PrefixEv @ 60 NONAME
	_ZNK3Xml8RTagInfo9LocalNameEv @ 61 NONAME
	_ZTIN3Xml19CDictionaryCodePageE @ 62 NONAME ; #<TI>#
	_ZTVN3Xml19CDictionaryCodePageE @ 63 NONAME ; #<VT>#
	_ZTIN3Xml17CCharSetConverterE @ 64 NONAME ; #<TI>#
	_ZTIN3Xml7CParserE @ 65 NONAME ; #<TI>#
	_ZTVN3Xml17CCharSetConverterE @ 66 NONAME ; #<VT>#
	_ZTVN3Xml7CParserE @ 67 NONAME ; #<VT>#
	_ZN3Xml6ParseLERNS_7CParserER5RFile @ 68 NONAME
	_ZN3Xml10CMatchData10SetRomOnlyEi @ 69 NONAME
	_ZN3Xml10CMatchData11SetVariantLERK6TDesC8 @ 70 NONAME
	_ZN3Xml10CMatchData12SetMimeTypeLERK6TDesC8 @ 71 NONAME
	_ZN3Xml10CMatchData14SetLeaveOnManyEi @ 72 NONAME
	_ZN3Xml10CMatchData18SetCaseSensitivityEi @ 73 NONAME
	_ZN3Xml10CMatchData4NewLERK6TDesC8 @ 74 NONAME
	_ZN3Xml10CMatchData4NewLEv @ 75 NONAME
	_ZN3Xml10CMatchData5NewLCERK6TDesC8 @ 76 NONAME
	_ZN3Xml10CMatchData5NewLCEv @ 77 NONAME
	_ZN3Xml7CParser11ParseBeginLERKNS_10CMatchDataE @ 78 NONAME
	_ZN3Xml7CParser4NewLERKNS_10CMatchDataERNS_15MContentHandlerE @ 79 NONAME
	_ZN3Xml7CParser5NewLCERKNS_10CMatchDataERNS_15MContentHandlerE @ 80 NONAME
	_ZNK3Xml10CMatchData7VariantEv @ 81 NONAME
	_ZNK3Xml10CMatchData8MimeTypeEv @ 82 NONAME
	_ZNK3Xml10CMatchData8ResolveLER6RArrayIP26CImplementationInformationE @ 83 NONAME
	_ZN3Xml17CCharSetConverter17ConvertToUnicodeLEmRK6TDesC8R6TPtr16 @ 84 NONAME
	_ZN3Xml17CCharSetConverter19ConvertFromUnicodeLERK7TDesC16mR5TPtr8 @ 85 NONAME

