EXPORTS
	_ZN14CLANLinkCommon10ConstructLEv @ 1 NONAME
	_ZN14CLANLinkCommon10IfProgressEii @ 2 NONAME
	_ZN14CLANLinkCommon10IfProgressEjii @ 3 NONAME
	_ZN14CLANLinkCommon11GetControlLERK6TDesC8 @ 4 NONAME
	_ZN14CLANLinkCommon11LinkLayerUpEv @ 5 NONAME
	_ZN14CLANLinkCommon13LinkLayerDownEiNS_7TActionE @ 6 NONAME
	_ZN14CLANLinkCommon13ResumeSendingEv @ 7 NONAME
	_ZN14CLANLinkCommon4NewLERN5ESock29CSubConnectionFlowFactoryBaseERKN8Messages7TNodeIdEPNS0_17CProtocolIntfBaseE @ 8 NONAME
	_ZN14CLANLinkCommon5BindLERK6TDesC8PN5ESock18MUpperDataReceiverEPNS3_13MUpperControlE @ 9 NONAME
	_ZN14CLANLinkCommon6UnbindEPN5ESock18MUpperDataReceiverEPNS0_13MUpperControlE @ 10 NONAME
	_ZN14CLANLinkCommon7ReadDesERK7TDesC16R5TDes8 @ 11 NONAME
	_ZN14CLANLinkCommon7ReadDesERK7TDesC16R6TDes16 @ 12 NONAME
	_ZN14CLANLinkCommon7ReadIntERK7TDesC16Rm @ 13 NONAME
	_ZN14CLANLinkCommon8NifEventE24TNetworkAdaptorEventTypejRK6TDesC8Pv @ 14 NONAME
	_ZN14CLANLinkCommon8ReadBoolERK7TDesC16Ri @ 15 NONAME
	_ZN14CLANLinkCommon8WriteDesERK7TDesC16RK6TDesC8 @ 16 NONAME
	_ZN14CLANLinkCommon8WriteDesERK7TDesC16S2_ @ 17 NONAME
	_ZN14CLANLinkCommon8WriteIntERK7TDesC16m @ 18 NONAME
	_ZN14CLANLinkCommon9ReceivedLERKN8Messages13TRuntimeCtxIdERKNS0_7TNodeIdERNS0_14TSignatureBaseE @ 19 NONAME
	_ZN14CLANLinkCommon9WriteBoolERK7TDesC16i @ 20 NONAME
	_ZN14CLANLinkCommonC1ERN5ESock29CSubConnectionFlowFactoryBaseERKN8Messages7TNodeIdEPNS0_17CProtocolIntfBaseE @ 21 NONAME
	_ZN14CLANLinkCommonC2ERN5ESock29CSubConnectionFlowFactoryBaseERKN8Messages7TNodeIdEPNS0_17CProtocolIntfBaseE @ 22 NONAME
	_ZN14CLANLinkCommonD0Ev @ 23 NONAME
	_ZN14CLANLinkCommonD1Ev @ 24 NONAME
	_ZN14CLANLinkCommonD2Ev @ 25 NONAME
	_ZN14WlanMCprStates8stateMap4SelfEv @ 26 NONAME
	_ZN27CWlanMetaConnectionProvider10ConstructLEv @ 27 NONAME
	_ZN27CWlanMetaConnectionProvider4NewLERN5ESock34CMetaConnectionProviderFactoryBaseERKNS0_13TProviderInfoE @ 28 NONAME
	_ZN27CWlanMetaConnectionProvider9ReceivedLERKN8Messages13TRuntimeCtxIdERKNS0_7TNodeIdERNS0_14TSignatureBaseE @ 29 NONAME
	_ZN27CWlanMetaConnectionProviderC1ERN5ESock34CMetaConnectionProviderFactoryBaseERKNS0_13TProviderInfoERKN11MeshMachine16TNodeActivityMapE @ 30 NONAME
	_ZN27CWlanMetaConnectionProviderC2ERN5ESock34CMetaConnectionProviderFactoryBaseERKNS0_13TProviderInfoERKN11MeshMachine16TNodeActivityMapE @ 31 NONAME
	_ZN27CWlanMetaConnectionProviderD0Ev @ 32 NONAME
	_ZN27CWlanMetaConnectionProviderD1Ev @ 33 NONAME
	_ZN27CWlanMetaConnectionProviderD2Ev @ 34 NONAME
	_ZTI13CPcCardPktDrv @ 35 NONAME ; #<TI>#
	_ZTI14CLANLinkCommon @ 36 NONAME ; #<TI>#
	_ZTI16TLanIp4Provision @ 37 NONAME ; #<TI>#
	_ZTI16TLanIp6Provision @ 38 NONAME ; #<TI>#
	_ZTI27CWlanMetaConnectionProvider @ 39 NONAME ; #<TI>#
	_ZTI7CSender @ 40 NONAME ; #<TI>#
	_ZTI9CReceiver @ 41 NONAME ; #<TI>#
	_ZTV13CPcCardPktDrv @ 42 NONAME ; #<VT>#
	_ZTV14CLANLinkCommon @ 43 NONAME ; #<VT>#
	_ZTV16TLanIp4Provision @ 44 NONAME ; #<VT>#
	_ZTV16TLanIp6Provision @ 45 NONAME ; #<VT>#
	_ZTV27CWlanMetaConnectionProvider @ 46 NONAME ; #<VT>#
	_ZTV7CSender @ 47 NONAME ; #<VT>#
	_ZTV9CReceiver @ 48 NONAME ; #<VT>#
	_ZThn12_N14CLANLinkCommonD0Ev @ 49 NONAME ; #<thunk>#
	_ZThn12_N14CLANLinkCommonD1Ev @ 50 NONAME ; #<thunk>#
	_ZThn12_N27CWlanMetaConnectionProviderD0Ev @ 51 NONAME ; #<thunk>#
	_ZThn12_N27CWlanMetaConnectionProviderD1Ev @ 52 NONAME ; #<thunk>#
	_ZThn20_N14CLANLinkCommon9ReceivedLERKN8Messages13TRuntimeCtxIdERKNS0_7TNodeIdERNS0_14TSignatureBaseE @ 53 NONAME ; #<thunk>#
	_ZThn20_N27CWlanMetaConnectionProvider9ReceivedLERKN8Messages13TRuntimeCtxIdERKNS0_7TNodeIdERNS0_14TSignatureBaseE @ 54 NONAME ; #<thunk>#
	_ZThn100_N14CLANLinkCommon11GetControlLERK6TDesC8 @ 55 NONAME ; #<thunk>#
	_ZThn100_N14CLANLinkCommon5BindLERK6TDesC8PN5ESock18MUpperDataReceiverEPNS3_13MUpperControlE @ 56 NONAME ; #<thunk>#
	_ZThn100_N14CLANLinkCommon6UnbindEPN5ESock18MUpperDataReceiverEPNS0_13MUpperControlE @ 57 NONAME ; #<thunk>#

