EXPORTS
	?ManagedConfigIndexes@COmxILConfigManager@@IAEAAV?$RArray@I@@XZ @ 1 NONAME ; class RArray<unsigned int> & COmxILConfigManager::ManagedConfigIndexes(void)
	?DoBufferAllocation@COmxILAudioPort@@MAE?AW4OMX_ERRORTYPE@@KAAPAEAAPAX1PAX@Z @ 2 NONAME ; enum OMX_ERRORTYPE COmxILAudioPort::DoBufferAllocation(unsigned long, unsigned char * &, void * &, void * &, void *)
	?SetConfig@COmxILConfigManager@@UAE?AW4OMX_ERRORTYPE@@W4OMX_INDEXTYPE@@PBX@Z @ 3 NONAME ; enum OMX_ERRORTYPE COmxILConfigManager::SetConfig(enum OMX_INDEXTYPE, void const *)
	?FindConfigIndex@COmxILConfigManager@@QBEHI@Z @ 4 NONAME ; int COmxILConfigManager::FindConfigIndex(unsigned int) const
	?IsBufferAtHome@COmxILVideoPort@@UBEHPAUOMX_BUFFERHEADERTYPE@@@Z @ 5 NONAME ; int COmxILVideoPort::IsBufferAtHome(struct OMX_BUFFERHEADERTYPE *) const
	?FreeTunnel@COmxILVideoPort@@UAE?AW4OMX_ERRORTYPE@@AAH@Z @ 6 NONAME ; enum OMX_ERRORTYPE COmxILVideoPort::FreeTunnel(int &)
	?SetBufferReturned@COmxILOtherPort@@UAEHPAUOMX_BUFFERHEADERTYPE@@@Z @ 7 NONAME ; int COmxILOtherPort::SetBufferReturned(struct OMX_BUFFERHEADERTYPE *)
	??0COmxILVideoPort@@IAE@XZ @ 8 NONAME ; COmxILVideoPort::COmxILVideoPort(void)
	?GetConfigManager@COmxILComponent@@IBEPAVCOmxILConfigManager@@XZ @ 9 NONAME ; class COmxILConfigManager * COmxILComponent::GetConfigManager(void) const
	?GetSupportedColorFormats@COmxILImagePort@@IAEAAV?$RArray@W4OMX_COLOR_FORMATTYPE@@@@XZ @ 10 NONAME ; class RArray<enum OMX_COLOR_FORMATTYPE> & COmxILImagePort::GetSupportedColorFormats(void)
	?GetParameter@COmxILOtherPort@@UBE?AW4OMX_ERRORTYPE@@W4OMX_INDEXTYPE@@PAX@Z @ 11 NONAME ; enum OMX_ERRORTYPE COmxILOtherPort::GetParameter(enum OMX_INDEXTYPE, void *) const
	?SetBufferReturned@COmxILAudioPort@@UAEHPAUOMX_BUFFERHEADERTYPE@@@Z @ 12 NONAME ; int COmxILAudioPort::SetBufferReturned(struct OMX_BUFFERHEADERTYPE *)
	?SetTransitionToDisabled@COmxILVideoPort@@UAEXXZ @ 13 NONAME ; void COmxILVideoPort::SetTransitionToDisabled(void)
	?GetSupportedOtherFormats@COmxILOtherPort@@IAEAAV?$RArray@W4OMX_OTHER_FORMATTYPE@@@@XZ @ 14 NONAME ; class RArray<enum OMX_OTHER_FORMATTYPE> & COmxILOtherPort::GetSupportedOtherFormats(void)
	?FreeTunnel@COmxILImagePort@@UAE?AW4OMX_ERRORTYPE@@AAH@Z @ 15 NONAME ; enum OMX_ERRORTYPE COmxILImagePort::FreeTunnel(int &)
	?SetConfig@COmxILImagePort@@UAE?AW4OMX_ERRORTYPE@@W4OMX_INDEXTYPE@@PBXAAH@Z @ 16 NONAME ; enum OMX_ERRORTYPE COmxILImagePort::SetConfig(enum OMX_INDEXTYPE, void const *, int &)
	?ConstructL@COmxILOtherPort@@IAEXABVTOmxILCommonPortData@@ABV?$RArray@W4OMX_OTHER_FORMATTYPE@@@@@Z @ 17 NONAME ; void COmxILOtherPort::ConstructL(class TOmxILCommonPortData const &, class RArray<enum OMX_OTHER_FORMATTYPE> const &)
	?GetParamOtherPortFormat@COmxILOtherPort@@IAEAAUOMX_OTHER_PARAM_PORTFORMATTYPE@@XZ @ 18 NONAME ; struct OMX_OTHER_PARAM_PORTFORMATTYPE & COmxILOtherPort::GetParamOtherPortFormat(void)
	??1COmxILImagePort@@UAE@XZ @ 19 NONAME ; COmxILImagePort::~COmxILImagePort(void)
	?TunnelRequest@COmxILVideoPort@@UAE?AW4OMX_ERRORTYPE@@PAXKPAUOMX_TUNNELSETUPTYPE@@@Z @ 20 NONAME ; enum OMX_ERRORTYPE COmxILVideoPort::TunnelRequest(void *, unsigned long, struct OMX_TUNNELSETUPTYPE *)
	??0COmxILAudioPort@@IAE@XZ @ 21 NONAME ; COmxILAudioPort::COmxILAudioPort(void)
	?GetExtensionIndex@COmxILAudioPort@@UBE?AW4OMX_ERRORTYPE@@PADPAW4OMX_INDEXTYPE@@@Z @ 22 NONAME ; enum OMX_ERRORTYPE COmxILAudioPort::GetExtensionIndex(char *, enum OMX_INDEXTYPE *) const
	?FreeBuffer@COmxILOtherPort@@UAE?AW4OMX_ERRORTYPE@@PAUOMX_BUFFERHEADERTYPE@@AAH@Z @ 23 NONAME ; enum OMX_ERRORTYPE COmxILOtherPort::FreeBuffer(struct OMX_BUFFERHEADERTYPE *, int &)
	?SetTransitionToEnabledCompleted@COmxILOtherPort@@UAEXXZ @ 24 NONAME ; void COmxILOtherPort::SetTransitionToEnabledCompleted(void)
	?PopulateTunnel@COmxILOtherPort@@UAE?AW4OMX_ERRORTYPE@@AAH@Z @ 25 NONAME ; enum OMX_ERRORTYPE COmxILOtherPort::PopulateTunnel(int &)
	?HasAllBuffersAtHome@COmxILImagePort@@UBEHXZ @ 26 NONAME ; int COmxILImagePort::HasAllBuffersAtHome(void) const
	?GetParamImagePortFormat@COmxILImagePort@@IBEABUOMX_IMAGE_PARAM_PORTFORMATTYPE@@XZ @ 27 NONAME ; struct OMX_IMAGE_PARAM_PORTFORMATTYPE const & COmxILImagePort::GetParamImagePortFormat(void) const
	?SetTransitionToDisabled@COmxILAudioPort@@UAEXXZ @ 28 NONAME ; void COmxILAudioPort::SetTransitionToDisabled(void)
	?RegisterProcessingFunction@COmxILComponent@@IAEXPBVCOmxILProcessingFunction@@@Z @ 29 NONAME ; void COmxILComponent::RegisterProcessingFunction(class COmxILProcessingFunction const *)
	?SymbianErrorToGetHandleError@COmxILComponent@@SA?AW4OMX_ERRORTYPE@@H@Z @ 30 NONAME ; enum OMX_ERRORTYPE COmxILComponent::SymbianErrorToGetHandleError(int)
	?GetTunnelledPort@COmxILPort@@IBEABKXZ @ 31 NONAME ; unsigned long const & COmxILPort::GetTunnelledPort(void) const
	?StoreBufferMark@COmxILVideoPort@@UAE?AW4OMX_ERRORTYPE@@PBUOMX_MARKTYPE@@@Z @ 32 NONAME ; enum OMX_ERRORTYPE COmxILVideoPort::StoreBufferMark(struct OMX_MARKTYPE const *)
	?DoBufferUnwrapping@COmxILImagePort@@MAEXPAX000@Z @ 33 NONAME ; void COmxILImagePort::DoBufferUnwrapping(void *, void *, void *, void *)
	?DoBufferWrapping@COmxILAudioPort@@MAE?AW4OMX_ERRORTYPE@@KPAEAAPAX1PAX@Z @ 34 NONAME ; enum OMX_ERRORTYPE COmxILAudioPort::DoBufferWrapping(unsigned long, unsigned char *, void * &, void * &, void *)
	?FreeBuffer@COmxILAudioPort@@UAE?AW4OMX_ERRORTYPE@@PAUOMX_BUFFERHEADERTYPE@@AAH@Z @ 35 NONAME ; enum OMX_ERRORTYPE COmxILAudioPort::FreeBuffer(struct OMX_BUFFERHEADERTYPE *, int &)
	?DoBufferAllocation@COmxILVideoPort@@MAE?AW4OMX_ERRORTYPE@@KAAPAEAAPAX1PAX@Z @ 36 NONAME ; enum OMX_ERRORTYPE COmxILVideoPort::DoBufferAllocation(unsigned long, unsigned char * &, void * &, void * &, void *)
	?ComponentRoleIndication@COmxILProcessingFunction@@UAE?AW4OMX_ERRORTYPE@@I@Z @ 37 NONAME ; enum OMX_ERRORTYPE COmxILProcessingFunction::ComponentRoleIndication(unsigned int)
	?PopulateBuffer@COmxILImagePort@@UAE?AW4OMX_ERRORTYPE@@PAPAUOMX_BUFFERHEADERTYPE@@PAXKPAEAAH@Z @ 38 NONAME ; enum OMX_ERRORTYPE COmxILImagePort::PopulateBuffer(struct OMX_BUFFERHEADERTYPE * *, void *, unsigned long, unsigned char *, int &)
	?DoBufferDeallocation@COmxILImagePort@@MAEXPAX000@Z @ 39 NONAME ; void COmxILImagePort::DoBufferDeallocation(void *, void *, void *, void *)
	?ConstructL@COmxILComponent@@MAEXPAX@Z @ 40 NONAME ; void COmxILComponent::ConstructL(void *)
	?SetBufferSent@COmxILOtherPort@@UAEHPAUOMX_BUFFERHEADERTYPE@@AAH@Z @ 41 NONAME ; int COmxILOtherPort::SetBufferSent(struct OMX_BUFFERHEADERTYPE *, int &)
	?GetSupportedColorFormats@COmxILVideoPort@@IAEAAV?$RArray@W4OMX_COLOR_FORMATTYPE@@@@XZ @ 42 NONAME ; class RArray<enum OMX_COLOR_FORMATTYPE> & COmxILVideoPort::GetSupportedColorFormats(void)
	?FreeBuffer@COmxILImagePort@@UAE?AW4OMX_ERRORTYPE@@PAUOMX_BUFFERHEADERTYPE@@AAH@Z @ 43 NONAME ; enum OMX_ERRORTYPE COmxILImagePort::FreeBuffer(struct OMX_BUFFERHEADERTYPE *, int &)
	?GetSupportedImageFormats@COmxILImagePort@@IBEABV?$RArray@W4OMX_IMAGE_CODINGTYPE@@@@XZ @ 44 NONAME ; class RArray<enum OMX_IMAGE_CODINGTYPE> const & COmxILImagePort::GetSupportedImageFormats(void) const
	?Extension_@COmxILPort@@MAEHIAAPAXPAX@Z @ 45 NONAME ; int COmxILPort::Extension_(unsigned int, void * &, void *)
	?SetTransitionToEnabled@COmxILVideoPort@@UAEXXZ @ 46 NONAME ; void COmxILVideoPort::SetTransitionToEnabled(void)
	??0TOmxILCommonPortData@@QAE@TOMX_VERSIONTYPE@@KW4OMX_DIRTYPE@@KKW4OMX_PORTDOMAINTYPE@@W4OMX_BOOL@@KW4OMX_BUFFERSUPPLIERTYPE@@K@Z @ 47 NONAME ; TOmxILCommonPortData::TOmxILCommonPortData(union OMX_VERSIONTYPE, unsigned long, enum OMX_DIRTYPE, unsigned long, unsigned long, enum OMX_PORTDOMAINTYPE, enum OMX_BOOL, unsigned long, enum OMX_BUFFERSUPPLIERTYPE, unsigned long)
	?SetTransitionToDisabledCompleted@COmxILVideoPort@@UAEXXZ @ 48 NONAME ; void COmxILVideoPort::SetTransitionToDisabledCompleted(void)
	?ConstructL@COmxILAudioPort@@IAEXABVTOmxILCommonPortData@@ABV?$RArray@W4OMX_AUDIO_CODINGTYPE@@@@@Z @ 49 NONAME ; void COmxILAudioPort::ConstructL(class TOmxILCommonPortData const &, class RArray<enum OMX_AUDIO_CODINGTYPE> const &)
	?GetConfig@COmxILConfigManager@@UBE?AW4OMX_ERRORTYPE@@W4OMX_INDEXTYPE@@PAX@Z @ 50 NONAME ; enum OMX_ERRORTYPE COmxILConfigManager::GetConfig(enum OMX_INDEXTYPE, void *) const
	?GetSupportedVideoFormats@COmxILVideoPort@@IAEAAV?$RArray@W4OMX_VIDEO_CODINGTYPE@@@@XZ @ 51 NONAME ; class RArray<enum OMX_VIDEO_CODINGTYPE> & COmxILVideoPort::GetSupportedVideoFormats(void)
	?SetParameter@COmxILConfigManager@@UAE?AW4OMX_ERRORTYPE@@W4OMX_INDEXTYPE@@PBXW4OMX_BOOL@@@Z @ 52 NONAME ; enum OMX_ERRORTYPE COmxILConfigManager::SetParameter(enum OMX_INDEXTYPE, void const *, enum OMX_BOOL)
	?InitComponentL@COmxILComponent@@IAEXXZ @ 53 NONAME ; void COmxILComponent::InitComponentL(void)
	?DoBufferUnwrapping@COmxILAudioPort@@MAEXPAX000@Z @ 54 NONAME ; void COmxILAudioPort::DoBufferUnwrapping(void *, void *, void *, void *)
	?NewL@COmxILConfigManager@@SAPAV1@ABVTDesC8@@ABTOMX_VERSIONTYPE@@ABV?$RPointerArray@VTDesC8@@@@@Z @ 55 NONAME ; class COmxILConfigManager * COmxILConfigManager::NewL(class TDesC8 const &, union OMX_VERSIONTYPE const &, class RPointerArray<class TDesC8> const &)
	?DoBufferWrapping@COmxILOtherPort@@MAE?AW4OMX_ERRORTYPE@@KPAEAAPAX1PAX@Z @ 56 NONAME ; enum OMX_ERRORTYPE COmxILOtherPort::DoBufferWrapping(unsigned long, unsigned char *, void * &, void * &, void *)
	?ConstructL@COmxILImagePort@@IAEXABVTOmxILCommonPortData@@ABV?$RArray@W4OMX_IMAGE_CODINGTYPE@@@@ABV?$RArray@W4OMX_COLOR_FORMATTYPE@@@@@Z @ 57 NONAME ; void COmxILImagePort::ConstructL(class TOmxILCommonPortData const &, class RArray<enum OMX_IMAGE_CODINGTYPE> const &, class RArray<enum OMX_COLOR_FORMATTYPE> const &)
	?FreeTunnel@COmxILAudioPort@@UAE?AW4OMX_ERRORTYPE@@AAH@Z @ 58 NONAME ; enum OMX_ERRORTYPE COmxILAudioPort::FreeTunnel(int &)
	?DoOmxUseBuffer@COmxILAudioPort@@MAE?AW4OMX_ERRORTYPE@@PAXPAPAUOMX_BUFFERHEADERTYPE@@K00KPAE@Z @ 59 NONAME ; enum OMX_ERRORTYPE COmxILAudioPort::DoOmxUseBuffer(void *, struct OMX_BUFFERHEADERTYPE * *, unsigned long, void *, void *, unsigned long, unsigned char *)
	?DoBufferAllocation@COmxILImagePort@@MAE?AW4OMX_ERRORTYPE@@KAAPAEAAPAX1PAX@Z @ 60 NONAME ; enum OMX_ERRORTYPE COmxILImagePort::DoBufferAllocation(unsigned long, unsigned char * &, void * &, void * &, void *)
	?SetBufferReturned@COmxILImagePort@@UAEHPAUOMX_BUFFERHEADERTYPE@@@Z @ 61 NONAME ; int COmxILImagePort::SetBufferReturned(struct OMX_BUFFERHEADERTYPE *)
	?GetExtensionIndex@COmxILVideoPort@@UBE?AW4OMX_ERRORTYPE@@PADPAW4OMX_INDEXTYPE@@@Z @ 62 NONAME ; enum OMX_ERRORTYPE COmxILVideoPort::GetExtensionIndex(char *, enum OMX_INDEXTYPE *) const
	?GetConfig@COmxILVideoPort@@UBE?AW4OMX_ERRORTYPE@@W4OMX_INDEXTYPE@@PAX@Z @ 63 NONAME ; enum OMX_ERRORTYPE COmxILVideoPort::GetConfig(enum OMX_INDEXTYPE, void *) const
	?SetTransitionToEnabled@COmxILAudioPort@@UAEXXZ @ 64 NONAME ; void COmxILAudioPort::SetTransitionToEnabled(void)
	?SetParameter@COmxILVideoPort@@UAE?AW4OMX_ERRORTYPE@@W4OMX_INDEXTYPE@@PBXAAH@Z @ 65 NONAME ; enum OMX_ERRORTYPE COmxILVideoPort::SetParameter(enum OMX_INDEXTYPE, void const *, int &)
	?PopulateBuffer@COmxILVideoPort@@UAE?AW4OMX_ERRORTYPE@@PAPAUOMX_BUFFERHEADERTYPE@@PAXKPAEAAH@Z @ 66 NONAME ; enum OMX_ERRORTYPE COmxILVideoPort::PopulateBuffer(struct OMX_BUFFERHEADERTYPE * *, void *, unsigned long, unsigned char *, int &)
	?SetTransitionToDisabledCompleted@COmxILAudioPort@@UAEXXZ @ 67 NONAME ; void COmxILAudioPort::SetTransitionToDisabledCompleted(void)
	?MediaTimeIndication@COmxILProcessingFunction@@UAE?AW4OMX_ERRORTYPE@@ABUOMX_TIME_MEDIATIMETYPE@@@Z @ 68 NONAME ; enum OMX_ERRORTYPE COmxILProcessingFunction::MediaTimeIndication(struct OMX_TIME_MEDIATIMETYPE const &)
	?DoBufferDeallocation@COmxILAudioPort@@MAEXPAX000@Z @ 69 NONAME ; void COmxILAudioPort::DoBufferDeallocation(void *, void *, void *, void *)
	?GetLocalOmxParamIndexes@COmxILAudioPort@@UBE?AW4OMX_ERRORTYPE@@AAV?$RArray@I@@@Z @ 70 NONAME ; enum OMX_ERRORTYPE COmxILAudioPort::GetLocalOmxParamIndexes(class RArray<unsigned int> &) const
	??0COmxILConfigManager@@IAE@XZ @ 71 NONAME ; COmxILConfigManager::COmxILConfigManager(void)
	??0COmxILOtherPort@@IAE@XZ @ 72 NONAME ; COmxILOtherPort::COmxILOtherPort(void)
	??0TOmxILSpecVersion@@QAE@XZ @ 73 NONAME ; TOmxILSpecVersion::TOmxILSpecVersion(void)
	??1COmxILVideoPort@@UAE@XZ @ 74 NONAME ; COmxILVideoPort::~COmxILVideoPort(void)
	?SetBufferSent@COmxILImagePort@@UAEHPAUOMX_BUFFERHEADERTYPE@@AAH@Z @ 75 NONAME ; int COmxILImagePort::SetBufferSent(struct OMX_BUFFERHEADERTYPE *, int &)
	?SetTransitionToDisabled@COmxILOtherPort@@UAEXXZ @ 76 NONAME ; void COmxILOtherPort::SetTransitionToDisabled(void)
	?GetParameter@COmxILVideoPort@@UBE?AW4OMX_ERRORTYPE@@W4OMX_INDEXTYPE@@PAX@Z @ 77 NONAME ; enum OMX_ERRORTYPE COmxILVideoPort::GetParameter(enum OMX_INDEXTYPE, void *) const
	?GetHandle@COmxILComponent@@IBEPAUOMX_COMPONENTTYPE@@XZ @ 78 NONAME ; struct OMX_COMPONENTTYPE * COmxILComponent::GetHandle(void) const
	?PopulateBuffer@COmxILOtherPort@@UAE?AW4OMX_ERRORTYPE@@PAPAUOMX_BUFFERHEADERTYPE@@PAXKPAEAAH@Z @ 79 NONAME ; enum OMX_ERRORTYPE COmxILOtherPort::PopulateBuffer(struct OMX_BUFFERHEADERTYPE * *, void *, unsigned long, unsigned char *, int &)
	?HasAllBuffersAtHome@COmxILVideoPort@@UBEHXZ @ 80 NONAME ; int COmxILVideoPort::HasAllBuffersAtHome(void) const
	?SetTransitionToEnabledCompleted@COmxILImagePort@@UAEXXZ @ 81 NONAME ; void COmxILImagePort::SetTransitionToEnabledCompleted(void)
	?DoPortReconfiguration@COmxILAudioPort@@UAE?AW4OMX_ERRORTYPE@@IABVTDesC8@@AAW4OMX_EVENTTYPE@@@Z @ 82 NONAME ; enum OMX_ERRORTYPE COmxILAudioPort::DoPortReconfiguration(unsigned int, class TDesC8 const &, enum OMX_EVENTTYPE &)
	?IsBufferAtHome@COmxILOtherPort@@UBEHPAUOMX_BUFFERHEADERTYPE@@@Z @ 83 NONAME ; int COmxILOtherPort::IsBufferAtHome(struct OMX_BUFFERHEADERTYPE *) const
	?DoBufferUnwrapping@COmxILVideoPort@@MAEXPAX000@Z @ 84 NONAME ; void COmxILVideoPort::DoBufferUnwrapping(void *, void *, void *, void *)
	?GetParamImagePortFormat@COmxILImagePort@@IAEAAUOMX_IMAGE_PARAM_PORTFORMATTYPE@@XZ @ 85 NONAME ; struct OMX_IMAGE_PARAM_PORTFORMATTYPE & COmxILImagePort::GetParamImagePortFormat(void)
	?SetParameter@COmxILOtherPort@@UAE?AW4OMX_ERRORTYPE@@W4OMX_INDEXTYPE@@PBXAAH@Z @ 86 NONAME ; enum OMX_ERRORTYPE COmxILOtherPort::SetParameter(enum OMX_INDEXTYPE, void const *, int &)
	?Extension_@COmxILConfigManager@@MAEHIAAPAXPAX@Z @ 87 NONAME ; int COmxILConfigManager::Extension_(unsigned int, void * &, void *)
	??1COmxILAudioPort@@UAE@XZ @ 88 NONAME ; COmxILAudioPort::~COmxILAudioPort(void)
	?IsBufferAtHome@COmxILAudioPort@@UBEHPAUOMX_BUFFERHEADERTYPE@@@Z @ 89 NONAME ; int COmxILAudioPort::IsBufferAtHome(struct OMX_BUFFERHEADERTYPE *) const
	?SetParameter@COmxILAudioPort@@UAE?AW4OMX_ERRORTYPE@@W4OMX_INDEXTYPE@@PBXAAH@Z @ 90 NONAME ; enum OMX_ERRORTYPE COmxILAudioPort::SetParameter(enum OMX_INDEXTYPE, void const *, int &)
	?DoBufferAllocation@COmxILOtherPort@@MAE?AW4OMX_ERRORTYPE@@KAAPAEAAPAX1PAX@Z @ 91 NONAME ; enum OMX_ERRORTYPE COmxILOtherPort::DoBufferAllocation(unsigned long, unsigned char * &, void * &, void * &, void *)
	?GetParamPortDefinition@COmxILPort@@IBEABUOMX_PARAM_PORTDEFINITIONTYPE@@XZ @ 92 NONAME ; struct OMX_PARAM_PORTDEFINITIONTYPE const & COmxILPort::GetParamPortDefinition(void) const
	?DoBufferWrapping@COmxILImagePort@@MAE?AW4OMX_ERRORTYPE@@KPAEAAPAX1PAX@Z @ 93 NONAME ; enum OMX_ERRORTYPE COmxILImagePort::DoBufferWrapping(unsigned long, unsigned char *, void * &, void * &, void *)
	?GetLocalOmxConfigIndexes@COmxILAudioPort@@UBE?AW4OMX_ERRORTYPE@@AAV?$RArray@I@@@Z @ 94 NONAME ; enum OMX_ERRORTYPE COmxILAudioPort::GetLocalOmxConfigIndexes(class RArray<unsigned int> &) const
	?HasAllBuffersAtHome@COmxILAudioPort@@UBEHXZ @ 95 NONAME ; int COmxILAudioPort::HasAllBuffersAtHome(void) const
	??1COmxILConfigManager@@UAE@XZ @ 96 NONAME ; COmxILConfigManager::~COmxILConfigManager(void)
	?DoBufferDeallocation@COmxILVideoPort@@MAEXPAX000@Z @ 97 NONAME ; void COmxILVideoPort::DoBufferDeallocation(void *, void *, void *, void *)
	?ConstructL@COmxILConfigManager@@IAEXABVTDesC8@@ABTOMX_VERSIONTYPE@@ABV?$RPointerArray@VTDesC8@@@@@Z @ 98 NONAME ; void COmxILConfigManager::ConstructL(class TDesC8 const &, union OMX_VERSIONTYPE const &, class RPointerArray<class TDesC8> const &)
	?FreeTunnel@COmxILOtherPort@@UAE?AW4OMX_ERRORTYPE@@AAH@Z @ 99 NONAME ; enum OMX_ERRORTYPE COmxILOtherPort::FreeTunnel(int &)
	?GetConfig@COmxILAudioPort@@UBE?AW4OMX_ERRORTYPE@@W4OMX_INDEXTYPE@@PAX@Z @ 100 NONAME ; enum OMX_ERRORTYPE COmxILAudioPort::GetConfig(enum OMX_INDEXTYPE, void *) const
	?NewL@COmxILClientClockPort@@SAPAV1@ABVTOmxILCommonPortData@@ABV?$RArray@W4OMX_OTHER_FORMATTYPE@@@@@Z @ 101 NONAME ; class COmxILClientClockPort * COmxILClientClockPort::NewL(class TOmxILCommonPortData const &, class RArray<enum OMX_OTHER_FORMATTYPE> const &)
	?GetAppData@COmxILComponent@@IBEPAXXZ @ 102 NONAME ; void * COmxILComponent::GetAppData(void) const
	?GetConfig@COmxILImagePort@@UBE?AW4OMX_ERRORTYPE@@W4OMX_INDEXTYPE@@PAX@Z @ 103 NONAME ; enum OMX_ERRORTYPE COmxILImagePort::GetConfig(enum OMX_INDEXTYPE, void *) const
	?Extension_@COmxILOtherPort@@MAEHIAAPAXPAX@Z @ 104 NONAME ; int COmxILOtherPort::Extension_(unsigned int, void * &, void *)
	?GetExtensionIndex@COmxILConfigManager@@UBE?AW4OMX_ERRORTYPE@@PADPAW4OMX_INDEXTYPE@@@Z @ 105 NONAME ; enum OMX_ERRORTYPE COmxILConfigManager::GetExtensionIndex(char *, enum OMX_INDEXTYPE *) const
	?GetLocalOmxParamIndexes@COmxILVideoPort@@UBE?AW4OMX_ERRORTYPE@@AAV?$RArray@I@@@Z @ 106 NONAME ; enum OMX_ERRORTYPE COmxILVideoPort::GetLocalOmxParamIndexes(class RArray<unsigned int> &) const
	?TunnelRequest@COmxILOtherPort@@UAE?AW4OMX_ERRORTYPE@@PAXKPAUOMX_TUNNELSETUPTYPE@@@Z @ 107 NONAME ; enum OMX_ERRORTYPE COmxILOtherPort::TunnelRequest(void *, unsigned long, struct OMX_TUNNELSETUPTYPE *)
	?Extension_@COmxILAudioPort@@MAEHIAAPAXPAX@Z @ 108 NONAME ; int COmxILAudioPort::Extension_(unsigned int, void * &, void *)
	?SetBufferReturned@COmxILVideoPort@@UAEHPAUOMX_BUFFERHEADERTYPE@@@Z @ 109 NONAME ; int COmxILVideoPort::SetBufferReturned(struct OMX_BUFFERHEADERTYPE *)
	??0COmxILComponent@@IAE@XZ @ 110 NONAME ; COmxILComponent::COmxILComponent(void)
	?GetCallbacks@COmxILComponent@@IBEPAUOMX_CALLBACKTYPE@@XZ @ 111 NONAME ; struct OMX_CALLBACKTYPE * COmxILComponent::GetCallbacks(void) const
	?SetConfig@COmxILVideoPort@@UAE?AW4OMX_ERRORTYPE@@W4OMX_INDEXTYPE@@PBXAAH@Z @ 112 NONAME ; enum OMX_ERRORTYPE COmxILVideoPort::SetConfig(enum OMX_INDEXTYPE, void const *, int &)
	?CreatePortManagerL@COmxILComponent@@IAEXW4TPortManagerType@1@ABTOMX_VERSIONTYPE@@KKKKKKKKW4OMX_BOOL@@@Z @ 113 NONAME ; void COmxILComponent::CreatePortManagerL(enum COmxILComponent::TPortManagerType, union OMX_VERSIONTYPE const &, unsigned long, unsigned long, unsigned long, unsigned long, unsigned long, unsigned long, unsigned long, unsigned long, enum OMX_BOOL)
	?GetSupportedColorFormats@COmxILImagePort@@IBEABV?$RArray@W4OMX_COLOR_FORMATTYPE@@@@XZ @ 114 NONAME ; class RArray<enum OMX_COLOR_FORMATTYPE> const & COmxILImagePort::GetSupportedColorFormats(void) const
	?PopulateTunnel@COmxILVideoPort@@UAE?AW4OMX_ERRORTYPE@@AAH@Z @ 115 NONAME ; enum OMX_ERRORTYPE COmxILVideoPort::PopulateTunnel(int &)
	?StoreBufferMark@COmxILImagePort@@UAE?AW4OMX_ERRORTYPE@@PBUOMX_MARKTYPE@@@Z @ 116 NONAME ; enum OMX_ERRORTYPE COmxILImagePort::StoreBufferMark(struct OMX_MARKTYPE const *)
	?SetTransitionToEnabled@COmxILOtherPort@@UAEXXZ @ 117 NONAME ; void COmxILOtherPort::SetTransitionToEnabled(void)
	?GetParamVideoPortFormat@COmxILVideoPort@@IBEABUOMX_VIDEO_PARAM_PORTFORMATTYPE@@XZ @ 118 NONAME ; struct OMX_VIDEO_PARAM_PORTFORMATTYPE const & COmxILVideoPort::GetParamVideoPortFormat(void) const
	?GetSupportedOtherFormats@COmxILOtherPort@@IBEABV?$RArray@W4OMX_OTHER_FORMATTYPE@@@@XZ @ 119 NONAME ; class RArray<enum OMX_OTHER_FORMATTYPE> const & COmxILOtherPort::GetSupportedOtherFormats(void) const
	?SetTransitionToDisabledCompleted@COmxILOtherPort@@UAEXXZ @ 120 NONAME ; void COmxILOtherPort::SetTransitionToDisabledCompleted(void)
	?GetParameter@COmxILAudioPort@@UBE?AW4OMX_ERRORTYPE@@W4OMX_INDEXTYPE@@PAX@Z @ 121 NONAME ; enum OMX_ERRORTYPE COmxILAudioPort::GetParameter(enum OMX_INDEXTYPE, void *) const
	?GetTunnelledComponent@COmxILPort@@IBEABQAXXZ @ 122 NONAME ; void * const const & COmxILPort::GetTunnelledComponent(void) const
	?GetParameter@COmxILImagePort@@UBE?AW4OMX_ERRORTYPE@@W4OMX_INDEXTYPE@@PAX@Z @ 123 NONAME ; enum OMX_ERRORTYPE COmxILImagePort::GetParameter(enum OMX_INDEXTYPE, void *) const
	?TunnelRequest@COmxILAudioPort@@UAE?AW4OMX_ERRORTYPE@@PAXKPAUOMX_TUNNELSETUPTYPE@@@Z @ 124 NONAME ; enum OMX_ERRORTYPE COmxILAudioPort::TunnelRequest(void *, unsigned long, struct OMX_TUNNELSETUPTYPE *)
	?SetComponentRoleDefaults@COmxILImagePort@@UAE?AW4OMX_ERRORTYPE@@I@Z @ 125 NONAME ; enum OMX_ERRORTYPE COmxILImagePort::SetComponentRoleDefaults(unsigned int)
	?PopulateTunnel@COmxILImagePort@@UAE?AW4OMX_ERRORTYPE@@AAH@Z @ 126 NONAME ; enum OMX_ERRORTYPE COmxILImagePort::PopulateTunnel(int &)
	?StoreBufferMark@COmxILOtherPort@@UAE?AW4OMX_ERRORTYPE@@PBUOMX_MARKTYPE@@@Z @ 127 NONAME ; enum OMX_ERRORTYPE COmxILOtherPort::StoreBufferMark(struct OMX_MARKTYPE const *)
	?FreeBuffer@COmxILVideoPort@@UAE?AW4OMX_ERRORTYPE@@PAUOMX_BUFFERHEADERTYPE@@AAH@Z @ 128 NONAME ; enum OMX_ERRORTYPE COmxILVideoPort::FreeBuffer(struct OMX_BUFFERHEADERTYPE *, int &)
	?GetLocalOmxParamIndexes@COmxILImagePort@@UBE?AW4OMX_ERRORTYPE@@AAV?$RArray@I@@@Z @ 129 NONAME ; enum OMX_ERRORTYPE COmxILImagePort::GetLocalOmxParamIndexes(class RArray<unsigned int> &) const
	?Index@COmxILPort@@QBEKXZ @ 130 NONAME ; unsigned long COmxILPort::Index(void) const
	?InsertConfigIndexL@COmxILConfigManager@@QAEXI@Z @ 131 NONAME ; void COmxILConfigManager::InsertConfigIndexL(unsigned int)
	?Extension_@COmxILComponent@@MAEHIAAPAXPAX@Z @ 132 NONAME ; int COmxILComponent::Extension_(unsigned int, void * &, void *)
	?AddPort@COmxILComponent@@IAEHPBVCOmxILPort@@W4OMX_DIRTYPE@@@Z @ 133 NONAME ; int COmxILComponent::AddPort(class COmxILPort const *, enum OMX_DIRTYPE)
	?GetSupportedImageFormats@COmxILImagePort@@IAEAAV?$RArray@W4OMX_IMAGE_CODINGTYPE@@@@XZ @ 134 NONAME ; class RArray<enum OMX_IMAGE_CODINGTYPE> & COmxILImagePort::GetSupportedImageFormats(void)
	?ConstructL@COmxILVideoPort@@IAEXABVTOmxILCommonPortData@@ABV?$RArray@W4OMX_VIDEO_CODINGTYPE@@@@ABV?$RArray@W4OMX_COLOR_FORMATTYPE@@@@@Z @ 135 NONAME ; void COmxILVideoPort::ConstructL(class TOmxILCommonPortData const &, class RArray<enum OMX_VIDEO_CODINGTYPE> const &, class RArray<enum OMX_COLOR_FORMATTYPE> const &)
	?CheckOmxStructSizeAndVersion@TOmxILUtil@@SA?AW4OMX_ERRORTYPE@@PAXK@Z @ 136 NONAME ; enum OMX_ERRORTYPE TOmxILUtil::CheckOmxStructSizeAndVersion(void *, unsigned long)
	?TunnelRequest@COmxILImagePort@@UAE?AW4OMX_ERRORTYPE@@PAXKPAUOMX_TUNNELSETUPTYPE@@@Z @ 137 NONAME ; enum OMX_ERRORTYPE COmxILImagePort::TunnelRequest(void *, unsigned long, struct OMX_TUNNELSETUPTYPE *)
	?DoOmxUseBuffer@COmxILImagePort@@MAE?AW4OMX_ERRORTYPE@@PAXPAPAUOMX_BUFFERHEADERTYPE@@K00KPAE@Z @ 138 NONAME ; enum OMX_ERRORTYPE COmxILImagePort::DoOmxUseBuffer(void *, struct OMX_BUFFERHEADERTYPE * *, unsigned long, void *, void *, unsigned long, unsigned char *)
	?SetBufferSent@COmxILAudioPort@@UAEHPAUOMX_BUFFERHEADERTYPE@@AAH@Z @ 139 NONAME ; int COmxILAudioPort::SetBufferSent(struct OMX_BUFFERHEADERTYPE *, int &)
	?DoBufferUnwrapping@COmxILOtherPort@@MAEXPAX000@Z @ 140 NONAME ; void COmxILOtherPort::DoBufferUnwrapping(void *, void *, void *, void *)
	??0COmxILImagePort@@IAE@XZ @ 141 NONAME ; COmxILImagePort::COmxILImagePort(void)
	?GetLocalOmxConfigIndexes@COmxILVideoPort@@UBE?AW4OMX_ERRORTYPE@@AAV?$RArray@I@@@Z @ 142 NONAME ; enum OMX_ERRORTYPE COmxILVideoPort::GetLocalOmxConfigIndexes(class RArray<unsigned int> &) const
	?SetConfig@COmxILOtherPort@@UAE?AW4OMX_ERRORTYPE@@W4OMX_INDEXTYPE@@PBXAAH@Z @ 143 NONAME ; enum OMX_ERRORTYPE COmxILOtherPort::SetConfig(enum OMX_INDEXTYPE, void const *, int &)
	??0COmxILProcessingFunction@@IAE@AAVMOmxILCallbackNotificationIf@@@Z @ 144 NONAME ; COmxILProcessingFunction::COmxILProcessingFunction(class MOmxILCallbackNotificationIf &)
	?DoBufferWrapping@COmxILVideoPort@@MAE?AW4OMX_ERRORTYPE@@KPAEAAPAX1PAX@Z @ 145 NONAME ; enum OMX_ERRORTYPE COmxILVideoPort::DoBufferWrapping(unsigned long, unsigned char *, void * &, void * &, void *)
	?GetProcessingFunction@COmxILComponent@@IBEPAVCOmxILProcessingFunction@@XZ @ 146 NONAME ; class COmxILProcessingFunction * COmxILComponent::GetProcessingFunction(void) const
	?SetConfig@COmxILAudioPort@@UAE?AW4OMX_ERRORTYPE@@W4OMX_INDEXTYPE@@PBXAAH@Z @ 147 NONAME ; enum OMX_ERRORTYPE COmxILAudioPort::SetConfig(enum OMX_INDEXTYPE, void const *, int &)
	?GetTunnelledPort@COmxILPort@@IAEAAKXZ @ 148 NONAME ; unsigned long & COmxILPort::GetTunnelledPort(void)
	?InsertParamIndexL@COmxILConfigManager@@QAEXI@Z @ 149 NONAME ; void COmxILConfigManager::InsertParamIndexL(unsigned int)
	?SetTransitionToDisabled@COmxILImagePort@@UAEXXZ @ 150 NONAME ; void COmxILImagePort::SetTransitionToDisabled(void)
	?SetComponentRoleDefaults@COmxILOtherPort@@UAE?AW4OMX_ERRORTYPE@@I@Z @ 151 NONAME ; enum OMX_ERRORTYPE COmxILOtherPort::SetComponentRoleDefaults(unsigned int)
	?IsBufferAtHome@COmxILImagePort@@UBEHPAUOMX_BUFFERHEADERTYPE@@@Z @ 152 NONAME ; int COmxILImagePort::IsBufferAtHome(struct OMX_BUFFERHEADERTYPE *) const
	?GetParamOtherPortFormat@COmxILOtherPort@@IBEABUOMX_OTHER_PARAM_PORTFORMATTYPE@@XZ @ 153 NONAME ; struct OMX_OTHER_PARAM_PORTFORMATTYPE const & COmxILOtherPort::GetParamOtherPortFormat(void) const
	?SetTransitionToEnabledCompleted@COmxILVideoPort@@UAEXXZ @ 154 NONAME ; void COmxILVideoPort::SetTransitionToEnabledCompleted(void)
	?DoBufferDeallocation@COmxILOtherPort@@MAEXPAX000@Z @ 155 NONAME ; void COmxILOtherPort::DoBufferDeallocation(void *, void *, void *, void *)
	??1COmxILOtherPort@@UAE@XZ @ 156 NONAME ; COmxILOtherPort::~COmxILOtherPort(void)
	?CleanUpPort@COmxILPort@@IAEXXZ @ 157 NONAME ; void COmxILPort::CleanUpPort(void)
	?Extension_@COmxILImagePort@@MAEHIAAPAXPAX@Z @ 158 NONAME ; int COmxILImagePort::Extension_(unsigned int, void * &, void *)
	?Extension_@COmxILVideoPort@@MAEHIAAPAXPAX@Z @ 159 NONAME ; int COmxILVideoPort::Extension_(unsigned int, void * &, void *)
	?GetParameter@COmxILConfigManager@@UBE?AW4OMX_ERRORTYPE@@W4OMX_INDEXTYPE@@PAX@Z @ 160 NONAME ; enum OMX_ERRORTYPE COmxILConfigManager::GetParameter(enum OMX_INDEXTYPE, void *) const
	?HasAllBuffersAtHome@COmxILOtherPort@@UBEHXZ @ 161 NONAME ; int COmxILOtherPort::HasAllBuffersAtHome(void) const
	?StoreBufferMark@COmxILAudioPort@@UAE?AW4OMX_ERRORTYPE@@PBUOMX_MARKTYPE@@@Z @ 162 NONAME ; enum OMX_ERRORTYPE COmxILAudioPort::StoreBufferMark(struct OMX_MARKTYPE const *)
	?GetSupportedColorFormats@COmxILVideoPort@@IBEABV?$RArray@W4OMX_COLOR_FORMATTYPE@@@@XZ @ 163 NONAME ; class RArray<enum OMX_COLOR_FORMATTYPE> const & COmxILVideoPort::GetSupportedColorFormats(void) const
	?DoOmxUseBuffer@COmxILVideoPort@@MAE?AW4OMX_ERRORTYPE@@PAXPAPAUOMX_BUFFERHEADERTYPE@@K00KPAE@Z @ 164 NONAME ; enum OMX_ERRORTYPE COmxILVideoPort::DoOmxUseBuffer(void *, struct OMX_BUFFERHEADERTYPE * *, unsigned long, void *, void *, unsigned long, unsigned char *)
	?FindParamIndex@COmxILConfigManager@@QBEHI@Z @ 165 NONAME ; int COmxILConfigManager::FindParamIndex(unsigned int) const
	?DoPortReconfiguration@COmxILImagePort@@UAE?AW4OMX_ERRORTYPE@@IABVTDesC8@@AAW4OMX_EVENTTYPE@@@Z @ 166 NONAME ; enum OMX_ERRORTYPE COmxILImagePort::DoPortReconfiguration(unsigned int, class TDesC8 const &, enum OMX_EVENTTYPE &)
	?GetLocalOmxConfigIndexes@COmxILImagePort@@UBE?AW4OMX_ERRORTYPE@@AAV?$RArray@I@@@Z @ 167 NONAME ; enum OMX_ERRORTYPE COmxILImagePort::GetLocalOmxConfigIndexes(class RArray<unsigned int> &) const
	?ClearBufferContents@TOmxILUtil@@SAXPAUOMX_BUFFERHEADERTYPE@@@Z @ 168 NONAME ; void TOmxILUtil::ClearBufferContents(struct OMX_BUFFERHEADERTYPE *)
	?SetParameter@COmxILImagePort@@UAE?AW4OMX_ERRORTYPE@@W4OMX_INDEXTYPE@@PBXAAH@Z @ 169 NONAME ; enum OMX_ERRORTYPE COmxILImagePort::SetParameter(enum OMX_INDEXTYPE, void const *, int &)
	?GetLocalOmxParamIndexes@COmxILOtherPort@@UBE?AW4OMX_ERRORTYPE@@AAV?$RArray@I@@@Z @ 170 NONAME ; enum OMX_ERRORTYPE COmxILOtherPort::GetLocalOmxParamIndexes(class RArray<unsigned int> &) const
	?SetTransitionToEnabledCompleted@COmxILAudioPort@@UAEXXZ @ 171 NONAME ; void COmxILAudioPort::SetTransitionToEnabledCompleted(void)
	?PopulateBuffer@COmxILAudioPort@@UAE?AW4OMX_ERRORTYPE@@PAPAUOMX_BUFFERHEADERTYPE@@PAXKPAEAAH@Z @ 172 NONAME ; enum OMX_ERRORTYPE COmxILAudioPort::PopulateBuffer(struct OMX_BUFFERHEADERTYPE * *, void *, unsigned long, unsigned char *, int &)
	?GetParamPortDefinition@COmxILPort@@IAEAAUOMX_PARAM_PORTDEFINITIONTYPE@@XZ @ 173 NONAME ; struct OMX_PARAM_PORTDEFINITIONTYPE & COmxILPort::GetParamPortDefinition(void)
	?GetSupportedVideoFormats@COmxILVideoPort@@IBEABV?$RArray@W4OMX_VIDEO_CODINGTYPE@@@@XZ @ 174 NONAME ; class RArray<enum OMX_VIDEO_CODINGTYPE> const & COmxILVideoPort::GetSupportedVideoFormats(void) const
	?GetExtensionIndex@COmxILImagePort@@UBE?AW4OMX_ERRORTYPE@@PADPAW4OMX_INDEXTYPE@@@Z @ 175 NONAME ; enum OMX_ERRORTYPE COmxILImagePort::GetExtensionIndex(char *, enum OMX_INDEXTYPE *) const
	?Extension_@COmxILProcessingFunction@@MAEHIAAPAXPAX@Z @ 176 NONAME ; int COmxILProcessingFunction::Extension_(unsigned int, void * &, void *)
	?UpdateColorFormat@COmxILVideoPort@@IAEHAAW4OMX_COLOR_FORMATTYPE@@W42@AAH@Z @ 177 NONAME ; int COmxILVideoPort::UpdateColorFormat(enum OMX_COLOR_FORMATTYPE &, enum OMX_COLOR_FORMATTYPE, int &)
	?PopulateTunnel@COmxILAudioPort@@UAE?AW4OMX_ERRORTYPE@@AAH@Z @ 178 NONAME ; enum OMX_ERRORTYPE COmxILAudioPort::PopulateTunnel(int &)
	?SetComponentRoleDefaults@COmxILAudioPort@@UAE?AW4OMX_ERRORTYPE@@I@Z @ 179 NONAME ; enum OMX_ERRORTYPE COmxILAudioPort::SetComponentRoleDefaults(unsigned int)
	?DoOmxUseBuffer@COmxILOtherPort@@MAE?AW4OMX_ERRORTYPE@@PAXPAPAUOMX_BUFFERHEADERTYPE@@K00KPAE@Z @ 180 NONAME ; enum OMX_ERRORTYPE COmxILOtherPort::DoOmxUseBuffer(void *, struct OMX_BUFFERHEADERTYPE * *, unsigned long, void *, void *, unsigned long, unsigned char *)
	?GetExtensionIndex@COmxILOtherPort@@UBE?AW4OMX_ERRORTYPE@@PADPAW4OMX_INDEXTYPE@@@Z @ 181 NONAME ; enum OMX_ERRORTYPE COmxILOtherPort::GetExtensionIndex(char *, enum OMX_INDEXTYPE *) const
	?RegisterConfigurationManager@COmxILComponent@@IAEXPBVCOmxILConfigManager@@@Z @ 182 NONAME ; void COmxILComponent::RegisterConfigurationManager(class COmxILConfigManager const *)
	?DoPortReconfiguration@COmxILOtherPort@@UAE?AW4OMX_ERRORTYPE@@IABVTDesC8@@AAW4OMX_EVENTTYPE@@@Z @ 183 NONAME ; enum OMX_ERRORTYPE COmxILOtherPort::DoPortReconfiguration(unsigned int, class TDesC8 const &, enum OMX_EVENTTYPE &)
	?SetBufferSent@COmxILVideoPort@@UAEHPAUOMX_BUFFERHEADERTYPE@@AAH@Z @ 184 NONAME ; int COmxILVideoPort::SetBufferSent(struct OMX_BUFFERHEADERTYPE *, int &)
	??BTOmxILVersion@@QAEAATOMX_VERSIONTYPE@@XZ @ 185 NONAME ; TOmxILVersion::operator union OMX_VERSIONTYPE &(void)
	?GetTunnelledComponent@COmxILPort@@IAEAAPAXXZ @ 186 NONAME ; void * & COmxILPort::GetTunnelledComponent(void)
	?UpdateCodingType@COmxILVideoPort@@IAEHAAW4OMX_VIDEO_CODINGTYPE@@W42@AAH@Z @ 187 NONAME ; int COmxILVideoPort::UpdateCodingType(enum OMX_VIDEO_CODINGTYPE &, enum OMX_VIDEO_CODINGTYPE, int &)
	?CreateCallbackManagerL@COmxILComponent@@IAEPAVMOmxILCallbackNotificationIf@@W4TCallbackManagerType@1@@Z @ 188 NONAME ; class MOmxILCallbackNotificationIf * COmxILComponent::CreateCallbackManagerL(enum COmxILComponent::TCallbackManagerType)
	?SetTransitionToEnabled@COmxILImagePort@@UAEXXZ @ 189 NONAME ; void COmxILImagePort::SetTransitionToEnabled(void)
	?IsEnabled@COmxILPort@@QBEHXZ @ 190 NONAME ; int COmxILPort::IsEnabled(void) const
	??0TOmxILVersion@@QAE@EEEE@Z @ 191 NONAME ; TOmxILVersion::TOmxILVersion(unsigned char, unsigned char, unsigned char, unsigned char)
	?GetConfig@COmxILOtherPort@@UBE?AW4OMX_ERRORTYPE@@W4OMX_INDEXTYPE@@PAX@Z @ 192 NONAME ; enum OMX_ERRORTYPE COmxILOtherPort::GetConfig(enum OMX_INDEXTYPE, void *) const
	?SetComponentRoleDefaults@COmxILVideoPort@@UAE?AW4OMX_ERRORTYPE@@I@Z @ 193 NONAME ; enum OMX_ERRORTYPE COmxILVideoPort::SetComponentRoleDefaults(unsigned int)
	??1COmxILProcessingFunction@@UAE@XZ @ 194 NONAME ; COmxILProcessingFunction::~COmxILProcessingFunction(void)
	?GetParamVideoPortFormat@COmxILVideoPort@@IAEAAUOMX_VIDEO_PARAM_PORTFORMATTYPE@@XZ @ 195 NONAME ; struct OMX_VIDEO_PARAM_PORTFORMATTYPE & COmxILVideoPort::GetParamVideoPortFormat(void)
	?DoPortReconfiguration@COmxILVideoPort@@UAE?AW4OMX_ERRORTYPE@@IABVTDesC8@@AAW4OMX_EVENTTYPE@@@Z @ 196 NONAME ; enum OMX_ERRORTYPE COmxILVideoPort::DoPortReconfiguration(unsigned int, class TDesC8 const &, enum OMX_EVENTTYPE &)
	?SetTransitionToDisabledCompleted@COmxILImagePort@@UAEXXZ @ 197 NONAME ; void COmxILImagePort::SetTransitionToDisabledCompleted(void)
	??1COmxILComponent@@UAE@XZ @ 198 NONAME ; COmxILComponent::~COmxILComponent(void)
	?GetLocalOmxConfigIndexes@COmxILOtherPort@@UBE?AW4OMX_ERRORTYPE@@AAV?$RArray@I@@@Z @ 199 NONAME ; enum OMX_ERRORTYPE COmxILOtherPort::GetLocalOmxConfigIndexes(class RArray<unsigned int> &) const

