EXPORTS
	_Z12XmlEngLeaveLi @ 1 NONAME
	_Z14XmlEngOOMTestLv @ 2 NONAME
	_Z14XmlEnginePushLv @ 3 NONAME
	_Z15XmlEngLeaveOOMLv @ 4 NONAME
	_Z16XmlEngineAttachLv @ 5 NONAME
	_Z16XmlEngineCleanupPv @ 6 NONAME
	_Z20XmlEnginePopAndClosev @ 7 NONAME
	_Z21XmlEngXmlCharFromDesLRK7TDesC16 @ 8 NONAME
	_Z22XmlEngXmlCharFromDes8LRK6TDesC8 @ 9 NONAME
	_Z24XmlEngEscapeForXmlValueLPKc @ 10 NONAME
	_ZN13TXmlEngString13AllocAndFreeLEv @ 11 NONAME
	_ZN13TXmlEngString14AllocAndFreeLCEv @ 12 NONAME
	_ZN13TXmlEngString3SetERS_ @ 13 NONAME
	_ZN13TXmlEngString4FreeEv @ 14 NONAME
	_ZN13TXmlEngString4SetLERK6TDesC8 @ 15 NONAME
	_ZN13TXmlEngString4SetLERK7TDesC16 @ 16 NONAME
	_ZN13TXmlEngString7AppendLES_ @ 17 NONAME
	_ZN13TXmlEngString7AppendLES_S_ @ 18 NONAME
	_ZNK18TXmlEngConstString4SizeEv @ 19 NONAME
	_ZNK18TXmlEngConstString5CopyLEv @ 20 NONAME
	_ZNK18TXmlEngConstString6AllocLEv @ 21 NONAME
	_ZNK18TXmlEngConstString6LengthEv @ 22 NONAME
	_ZNK18TXmlEngConstString7AllocLCEv @ 23 NONAME
	_ZNK18TXmlEngConstString7CompareES_ @ 24 NONAME

