EXPORTS
	_ZN10RWLMServer10CancelJoinEv @ 1 NONAME
	_ZN10RWLMServer12DirectedRoamER14TRequestStatusRK11TMacAddress @ 2 NONAME
	_ZN10RWLMServer12GetRogueListER12CArrayFixSegI5TBuf8ILi6EEE @ 3 NONAME
	_ZN10RWLMServer13GetSystemModeER15TWlanSystemMode @ 4 NONAME
	_ZN10RWLMServer14AddIapSsidListEjRK13CArrayFixFlatI5TBuf8ILi32EEE @ 5 NONAME
	_ZN10RWLMServer14CancelNotifiesEv @ 6 NONAME
	_ZN10RWLMServer14GetNetworkNameER6TDes16 @ 7 NONAME
	_ZN10RWLMServer14GetRoamMetricsER16TWlanRoamMetrics @ 8 NONAME
	_ZN10RWLMServer14GetScanResultsER8ScanListRK6TDesC8RiRj @ 9 NONAME
	_ZN10RWLMServer14GetScanResultsER8ScanListRK6TDesC8RiRjR14TRequestStatus @ 10 NONAME
	_ZN10RWLMServer15GetSecurityModeER13TWlanSecurity @ 11 NONAME
	_ZN10RWLMServer16GetAvailableIapsER17TWlmAvailableIapsRiRji @ 12 NONAME
	_ZN10RWLMServer16GetAvailableIapsER5TDes8S1_S1_iR14TRequestStatus @ 13 NONAME
	_ZN10RWLMServer16GetPowerSaveModeER14TWlanPowerSave @ 14 NONAME
	_ZN10RWLMServer16GetUapsdSettingsER18TWlanUapsdSettings @ 15 NONAME
	_ZN10RWLMServer16SetPowerSaveModeE18TWlanPowerSaveMode @ 16 NONAME
	_ZN10RWLMServer16SetUapsdSettingsERK18TWlanUapsdSettings @ 17 NONAME
	_ZN10RWLMServer17ActivateNotifiesLER10MWLMNotifym @ 18 NONAME
	_ZN10RWLMServer17GetConnectionRCPIERl @ 19 NONAME
	_ZN10RWLMServer17RemoveIapSsidListEj @ 20 NONAME
	_ZN10RWLMServer17RunProtectedSetupER14TRequestStatusRK5TBuf8ILi32EERKS2_ILi8EER5TDes8 @ 21 NONAME
	_ZN10RWLMServer18CancelDirectedRoamEv @ 22 NONAME
	_ZN10RWLMServer18ConfigureMulticastEjRK11TMacAddress @ 23 NONAME
	_ZN10RWLMServer18GetAcTrafficStatusER11TFixedArrayI19TWlmAcTrafficStatusLi4EE @ 24 NONAME
	_ZN10RWLMServer18GetAccessPointInfoER20TWlanAccessPointInfo @ 25 NONAME
	_ZN10RWLMServer18GetConnectionStateEv @ 26 NONAME
	_ZN10RWLMServer19AddBssidToRoguelistERK11TMacAddress @ 27 NONAME
	_ZN10RWLMServer19CreateTrafficStreamER14TRequestStatusRK28TWlanTrafficStreamParametersiRjR24TWlanTrafficStreamStatus @ 28 NONAME
	_ZN10RWLMServer19DeleteTrafficStreamER14TRequestStatusj @ 29 NONAME
	_ZN10RWLMServer19GetPacketStatisticsER21TWlanPacketStatistics @ 30 NONAME
	_ZN10RWLMServer19GetRegulatoryDomainER11TWlanRegion @ 31 NONAME
	_ZN10RWLMServer20CancelGetScanResultsEv @ 32 NONAME
	_ZN10RWLMServer20CancelProtectedSetupEv @ 33 NONAME
	_ZN10RWLMServer20GetPowerSaveSettingsER22TWlanPowerSaveSettings @ 34 NONAME
	_ZN10RWLMServer20SetPowerSaveSettingsERK22TWlanPowerSaveSettings @ 35 NONAME
	_ZN10RWLMServer21ClearPacketStatisticsEv @ 36 NONAME
	_ZN10RWLMServer21NotifyChangedSettingsEv @ 37 NONAME
	_ZN10RWLMServer22CancelGetAvailableIapsEv @ 38 NONAME
	_ZN10RWLMServer23NotifyChangedPsmSrvModeEi @ 39 NONAME
	_ZN10RWLMServer25CancelCreateTrafficStreamEv @ 40 NONAME
	_ZN10RWLMServer25CancelDeleteTrafficStreamEv @ 41 NONAME
	_ZN10RWLMServer29UpdateRcpNotificationBoundaryEll @ 42 NONAME
	_ZN10RWLMServer4JoinER14TRequestStatusmP20TWLMOverrideSettings @ 43 NONAME
	_ZN10RWLMServer5CloseEv @ 44 NONAME
	_ZN10RWLMServer7ConnectEv @ 45 NONAME
	_ZN10RWLMServer7ReleaseEv @ 46 NONAME
	_ZN10RWLMServer8GetBSSIDER11TMacAddress @ 47 NONAME
	_ZN10RWLMServer21StartAggressiveBgScanEj @ 48 NONAME

