EXPORTS
	??0RXmlEngDOMParser@@QAE@XZ @ 1 NONAME ; RXmlEngDOMParser::RXmlEngDOMParser(void)
	??0RXmlEngDocument@@QAE@XZ @ 2 NONAME ; RXmlEngDocument::RXmlEngDocument(void)
	??0RXmlEngNodeListImpl@@QAE@XZ @ 3 NONAME ; RXmlEngNodeListImpl::RXmlEngNodeListImpl(void)
	??0RXmlEngNodeSet@@QAE@XZ @ 4 NONAME ; RXmlEngNodeSet::RXmlEngNodeSet(void)
	??0TXmlEngXPathEvaluator@@QAE@XZ @ 5 NONAME ; TXmlEngXPathEvaluator::TXmlEngXPathEvaluator(void)
	??0RXmlEngXPathExpression@@QAE@XZ @ 6 NONAME ; RXmlEngXPathExpression::RXmlEngXPathExpression(void)
	??0RXmlEngXPathResult@@QAE@XZ @ 7 NONAME ; RXmlEngXPathResult::RXmlEngXPathResult(void)
	??0TXmlEngSerializationOptions@@QAE@IABVTDesC8@@@Z @ 8 NONAME ; TXmlEngSerializationOptions::TXmlEngSerializationOptions(unsigned int, class TDesC8 const &)
	??1CXmlEngXFormsInstanceMap@@UAE@XZ @ 9 NONAME ; CXmlEngXFormsInstanceMap::~CXmlEngXFormsInstanceMap(void)
	??ARXmlEngNodeSet@@QBE?AVTXmlEngNode@@H@Z @ 10 NONAME ; class TXmlEngNode RXmlEngNodeSet::operator[](int) const
	?AddEntryL@CXmlEngXFormsInstanceMap@@QAEXAAVRXmlEngDocument@@ABVTDesC8@@@Z @ 11 NONAME ; void CXmlEngXFormsInstanceMap::AddEntryL(class RXmlEngDocument &, class TDesC8 const &)
	?AddExtensionFunctionL@TXmlEngXPathConfiguration@@SAXABVTXmlEngExtensionFunctionDescriptor@@@Z @ 12 NONAME ABSENT ; void TXmlEngXPathConfiguration::AddExtensionFunctionL(class TXmlEngExtensionFunctionDescriptor const &)
	?AddExtensionFunctionVectorL@TXmlEngXPathConfiguration@@SAXABV?$RArray@VTXmlEngExtensionFunctionDescriptor@@@@I@Z @ 13 NONAME ABSENT ; void TXmlEngXPathConfiguration::AddExtensionFunctionVectorL(class RArray<class TXmlEngExtensionFunctionDescriptor> const &, unsigned int)
	?AddNamespaceDeclarationL@TXmlEngElement@@QAE?AVTXmlEngNamespace@@ABVTDesC8@@0@Z @ 14 NONAME ; class TXmlEngNamespace TXmlEngElement::AddNamespaceDeclarationL(class TDesC8 const &, class TDesC8 const &)
	?AddNativeExtensionFunctionL@TXmlEngXPathConfiguration@@SAXABVTXmlEngExtensionFunctionDescriptor@@@Z @ 15 NONAME ABSENT ; void TXmlEngXPathConfiguration::AddNativeExtensionFunctionL(class TXmlEngExtensionFunctionDescriptor const &)
	?AddNativeExtensionFunctionVectorL@TXmlEngXPathConfiguration@@SAXABV?$RArray@VTXmlEngExtensionFunctionDescriptor@@@@I@Z @ 16 NONAME ABSENT ; void TXmlEngXPathConfiguration::AddNativeExtensionFunctionVectorL(class RArray<class TXmlEngExtensionFunctionDescriptor> const &, unsigned int)
	?AddNewAttributeL@TXmlEngElement@@QAE?AVTXmlEngAttr@@ABVTDesC8@@000@Z @ 17 NONAME ; class TXmlEngAttr TXmlEngElement::AddNewAttributeL(class TDesC8 const &, class TDesC8 const &, class TDesC8 const &, class TDesC8 const &)
	?AddNewAttributeL@TXmlEngElement@@QAE?AVTXmlEngAttr@@ABVTDesC8@@0@Z @ 18 NONAME ; class TXmlEngAttr TXmlEngElement::AddNewAttributeL(class TDesC8 const &, class TDesC8 const &)
	?AddNewAttributeL@TXmlEngElement@@QAE?AVTXmlEngAttr@@ABVTDesC8@@0VTXmlEngNamespace@@@Z @ 19 NONAME ; class TXmlEngAttr TXmlEngElement::AddNewAttributeL(class TDesC8 const &, class TDesC8 const &, class TXmlEngNamespace)
	?AddNewAttributeUsePrefixL@TXmlEngElement@@QAE?AVTXmlEngAttr@@ABVTDesC8@@00@Z @ 20 NONAME ; class TXmlEngAttr TXmlEngElement::AddNewAttributeUsePrefixL(class TDesC8 const &, class TDesC8 const &, class TDesC8 const &)
	?AddNewAttributeWithNsL@TXmlEngElement@@QAE?AVTXmlEngAttr@@ABVTDesC8@@00@Z @ 21 NONAME ; class TXmlEngAttr TXmlEngElement::AddNewAttributeWithNsL(class TDesC8 const &, class TDesC8 const &, class TDesC8 const &)
	?AddNewElementAutoPrefixL@TXmlEngElement@@QAE?AV1@ABVTDesC8@@0V1@@Z @ 22 NONAME ; class TXmlEngElement TXmlEngElement::AddNewElementAutoPrefixL(class TDesC8 const &, class TDesC8 const &, class TXmlEngElement)
	?AddNewElementL@TXmlEngElement@@QAE?AV1@ABVTDesC8@@00@Z @ 23 NONAME ; class TXmlEngElement TXmlEngElement::AddNewElementL(class TDesC8 const &, class TDesC8 const &, class TDesC8 const &)
	?AddNewElementL@TXmlEngElement@@QAE?AV1@ABVTDesC8@@@Z @ 24 NONAME ; class TXmlEngElement TXmlEngElement::AddNewElementL(class TDesC8 const &)
	?AddNewElementL@TXmlEngElement@@QAE?AV1@ABVTDesC8@@VTXmlEngNamespace@@@Z @ 25 NONAME ; class TXmlEngElement TXmlEngElement::AddNewElementL(class TDesC8 const &, class TXmlEngNamespace)
	?AddNewElementSameNsL@TXmlEngElement@@QAE?AV1@ABVTDesC8@@@Z @ 26 NONAME ; class TXmlEngElement TXmlEngElement::AddNewElementSameNsL(class TDesC8 const &)
	?AddNewElementUsePrefixL@TXmlEngElement@@QAE?AV1@ABVTDesC8@@0@Z @ 27 NONAME ; class TXmlEngElement TXmlEngElement::AddNewElementUsePrefixL(class TDesC8 const &, class TDesC8 const &)
	?AddNewElementWithNsL@TXmlEngElement@@QAE?AV1@ABVTDesC8@@0@Z @ 28 NONAME ; class TXmlEngElement TXmlEngElement::AddNewElementWithNsL(class TDesC8 const &, class TDesC8 const &)
	?AddTextL@TXmlEngElement@@QAEXABVTDesC8@@@Z @ 29 NONAME ; void TXmlEngElement::AddTextL(class TDesC8 const &)
	?AddUserData@TXmlEngNode@@QAEHPAVMXmlEngUserData@@@Z @ 30 NONAME ; int TXmlEngNode::AddUserData(class MXmlEngUserData *)
	?AddXmlIdL@TXmlEngElement@@QAE?AVTXmlEngAttr@@ABVTDesC8@@0VTXmlEngNamespace@@@Z @ 31 NONAME ; class TXmlEngAttr TXmlEngElement::AddXmlIdL(class TDesC8 const &, class TDesC8 const &, class TXmlEngNamespace)
	?AdoptNodeL@RXmlEngDocument@@QAE?AVTXmlEngNode@@V2@@Z @ 32 NONAME ; class TXmlEngNode RXmlEngDocument::AdoptNodeL(class TXmlEngNode)
	?AppendChildL@TXmlEngNode@@QAE?AV1@V1@@Z @ 33 NONAME ; class TXmlEngNode TXmlEngNode::AppendChildL(class TXmlEngNode)
	?AppendContentsL@TXmlEngBinaryContainer@@QAEXABVTDesC8@@@Z @ 34 NONAME ; void TXmlEngBinaryContainer::AppendContentsL(class TDesC8 const &)
	?AppendContentsL@TXmlEngCharacterData@@QAEXABVTDesC8@@@Z @ 35 NONAME ; void TXmlEngCharacterData::AppendContentsL(class TDesC8 const &)
	?AppendTextNoEncL@TXmlEngElement@@QAEXABVTDesC8@@@Z @ 36 NONAME ; void TXmlEngElement::AppendTextNoEncL(class TDesC8 const &)
	?AsBoolean@RXmlEngXPathResult@@QBEHXZ @ 37 NONAME ; int RXmlEngXPathResult::AsBoolean(void) const
	?AsNodeSet@RXmlEngXPathResult@@QBE?AVRXmlEngNodeSet@@XZ @ 38 NONAME ; class RXmlEngNodeSet RXmlEngXPathResult::AsNodeSet(void) const
	?AsNumber@RXmlEngXPathResult@@QBENXZ @ 39 NONAME ; double RXmlEngXPathResult::AsNumber(void) const
	?AsStringL@RXmlEngXPathResult@@QBEXAAVRBuf8@@@Z @ 40 NONAME ; void RXmlEngXPathResult::AsStringL(class RBuf8 &) const
	?AttributeNodeL@TXmlEngElement@@QBE?AVTXmlEngAttr@@ABVTDesC8@@0@Z @ 41 NONAME ; class TXmlEngAttr TXmlEngElement::AttributeNodeL(class TDesC8 const &, class TDesC8 const &) const
	?AttributeValueL@TXmlEngElement@@QBE?AVTPtrC8@@ABVTDesC8@@0@Z @ 42 NONAME ; class TPtrC8 TXmlEngElement::AttributeValueL(class TDesC8 const &, class TDesC8 const &) const
	?BaseUriL@TXmlEngNode@@QBEXAAVRBuf8@@@Z @ 43 NONAME ; void TXmlEngNode::BaseUriL(class RBuf8 &) const
	?Chunk@TXmlEngChunkContainer@@QBEAAVRChunk@@XZ @ 44 NONAME ; class RChunk & TXmlEngChunkContainer::Chunk(void) const
	?ChunkOffset@TXmlEngChunkContainer@@QBEIXZ @ 45 NONAME ; unsigned int TXmlEngChunkContainer::ChunkOffset(void) const
	?Cid@TXmlEngDataContainer@@QBE?AVTPtrC8@@XZ @ 46 NONAME ; class TPtrC8 TXmlEngDataContainer::Cid(void) const
	?CloneDocumentL@RXmlEngDocument@@QBE?AV1@XZ @ 47 NONAME ; class RXmlEngDocument RXmlEngDocument::CloneDocumentL(void) const
	?Close@RXmlEngDOMImplementation@@QAEXH@Z @ 48 NONAME ; void RXmlEngDOMImplementation::Close(int)
	?Close@RXmlEngDOMParser@@QAEXXZ @ 49 NONAME ; void RXmlEngDOMParser::Close(void)
	?Close@RXmlEngDocument@@QAEXXZ @ 50 NONAME ; void RXmlEngDocument::Close(void)
	?Close@RXmlEngNodeListImpl@@QAEXXZ @ 51 NONAME ; void RXmlEngNodeListImpl::Close(void)
	?Contains@RXmlEngNodeSet@@QBEHVTXmlEngNode@@@Z @ 52 NONAME ; int RXmlEngNodeSet::Contains(class TXmlEngNode) const
	?Contents@TXmlEngBinaryContainer@@QBE?AVTPtrC8@@XZ @ 53 NONAME ; class TPtrC8 TXmlEngBinaryContainer::Contents(void) const
	?Contents@TXmlEngCharacterData@@QBE?AVTPtrC8@@XZ @ 54 NONAME ; class TPtrC8 TXmlEngCharacterData::Contents(void) const
	?CopyAttributesL@TXmlEngElement@@QAEXV1@@Z @ 55 NONAME ; void TXmlEngElement::CopyAttributesL(class TXmlEngElement)
	?CopyChildrenL@TXmlEngElement@@QAEXV1@@Z @ 56 NONAME ; void TXmlEngElement::CopyChildrenL(class TXmlEngElement)
	?CopyL@TXmlEngAttr@@QBE?AV1@XZ @ 57 NONAME ; class TXmlEngAttr TXmlEngAttr::CopyL(void) const
	?CopyL@TXmlEngNode@@QBE?AV1@XZ @ 58 NONAME ; class TXmlEngNode TXmlEngNode::CopyL(void) const
	?CopyToL@TXmlEngNode@@QBE?AV1@V1@@Z @ 59 NONAME ; class TXmlEngNode TXmlEngNode::CopyToL(class TXmlEngNode) const
	?Count@RXmlEngNodeListImpl@@QBEHXZ @ 60 NONAME ; int RXmlEngNodeListImpl::Count(void) const
	?CreateAttributeL@RXmlEngDocument@@QAE?AVTXmlEngAttr@@ABVTDesC8@@0@Z @ 61 NONAME ; class TXmlEngAttr RXmlEngDocument::CreateAttributeL(class TDesC8 const &, class TDesC8 const &)
	?CreateBinaryContainerL@RXmlEngDocument@@QAE?AVTXmlEngBinaryContainer@@ABVTDesC8@@0@Z @ 62 NONAME ; class TXmlEngBinaryContainer RXmlEngDocument::CreateBinaryContainerL(class TDesC8 const &, class TDesC8 const &)
	?CreateCDATASectionL@RXmlEngDocument@@QAE?AVTXmlEngCDATASection@@ABVTDesC8@@@Z @ 63 NONAME ; class TXmlEngCDATASection RXmlEngDocument::CreateCDATASectionL(class TDesC8 const &)
	?CreateChunkContainerL@RXmlEngDocument@@QAE?AVTXmlEngChunkContainer@@ABVTDesC8@@ABVRChunk@@HH@Z @ 64 NONAME ; class TXmlEngChunkContainer RXmlEngDocument::CreateChunkContainerL(class TDesC8 const &, class RChunk const &, int, int)
	?CreateCommentL@RXmlEngDocument@@QAE?AVTXmlEngComment@@ABVTDesC8@@@Z @ 65 NONAME ; class TXmlEngComment RXmlEngDocument::CreateCommentL(class TDesC8 const &)
	?CreateDocumentElementL@RXmlEngDocument@@QAE?AVTXmlEngElement@@ABVTDesC8@@00@Z @ 66 NONAME ; class TXmlEngElement RXmlEngDocument::CreateDocumentElementL(class TDesC8 const &, class TDesC8 const &, class TDesC8 const &)
	?CreateElementL@RXmlEngDocument@@QAE?AVTXmlEngElement@@ABVTDesC8@@00@Z @ 67 NONAME ; class TXmlEngElement RXmlEngDocument::CreateElementL(class TDesC8 const &, class TDesC8 const &, class TDesC8 const &)
	?CreateEntityReferenceL@RXmlEngDocument@@QAE?AVTXmlEngEntityReference@@ABVTDesC8@@@Z @ 68 NONAME ; class TXmlEngEntityReference RXmlEngDocument::CreateEntityReferenceL(class TDesC8 const &)
	?CreateExpressionL@TXmlEngXPathEvaluator@@QAE?AVRXmlEngXPathExpression@@ABVTDesC8@@PBVMXmlEngNamespaceResolver@@@Z @ 69 NONAME ; class RXmlEngXPathExpression TXmlEngXPathEvaluator::CreateExpressionL(class TDesC8 const &, class MXmlEngNamespaceResolver const *)
	?CreateFileContainerL@RXmlEngDocument@@QAE?AVTXmlEngFileContainer@@ABVTDesC8@@ABVRFile@@@Z @ 70 NONAME ; class TXmlEngFileContainer RXmlEngDocument::CreateFileContainerL(class TDesC8 const &, class RFile const &)
	?CreateProcessingInstructionL@RXmlEngDocument@@QAE?AVTXmlEngProcessingInstruction@@ABVTDesC8@@0@Z @ 71 NONAME ; class TXmlEngProcessingInstruction RXmlEngDocument::CreateProcessingInstructionL(class TDesC8 const &, class TDesC8 const &)
	?CreateTextNodeL@RXmlEngDocument@@QAE?AVTXmlEngTextNode@@ABVTDesC8@@@Z @ 72 NONAME ; class TXmlEngTextNode RXmlEngDocument::CreateTextNodeL(class TDesC8 const &)
	?Data@TXmlEngProcessingInstruction@@QBE?AVTPtrC8@@XZ @ 73 NONAME ; class TPtrC8 TXmlEngProcessingInstruction::Data(void) const
	?Destroy@RXmlEngXPathExpression@@QAEXXZ @ 74 NONAME ; void RXmlEngXPathExpression::Destroy(void)
	?DocumentElement@RXmlEngDocument@@QBE?AVTXmlEngElement@@XZ @ 75 NONAME ; class TXmlEngElement RXmlEngDocument::DocumentElement(void) const
	?DocumentUri@RXmlEngDocument@@QBE?AVTPtrC8@@XZ @ 76 NONAME ; class TPtrC8 RXmlEngDocument::DocumentUri(void) const
	?ElementCopyNoChildrenL@TXmlEngElement@@QBE?AV1@H@Z @ 77 NONAME ; class TXmlEngElement TXmlEngElement::ElementCopyNoChildrenL(int) const
	?Unused_Func1@TXmlEngXPathConfiguration@@SAXH@Z @ 78 NONAME ABSENT ; void TXmlEngXPathConfiguration::Unused_Func1(int)
	?EvaluateL@TXmlEngXPathEvaluator@@QAE?AVRXmlEngXPathResult@@ABVTDesC8@@VTXmlEngNode@@PBVMXmlEngNamespaceResolver@@@Z @ 79 NONAME ; class RXmlEngXPathResult TXmlEngXPathEvaluator::EvaluateL(class TDesC8 const &, class TXmlEngNode, class MXmlEngNamespaceResolver const *)
	?EvaluateL@RXmlEngXPathExpression@@QBE?AVRXmlEngXPathResult@@VTXmlEngNode@@PBVMXmlEngNamespaceResolver@@@Z @ 80 NONAME ; class RXmlEngXPathResult RXmlEngXPathExpression::EvaluateL(class TXmlEngNode, class MXmlEngNamespaceResolver const *) const
	?EvaluateWithDependenciesL@TXmlEngXPathEvaluator@@QAE?AVRXmlEngXPathResult@@ABVTDesC8@@VTXmlEngNode@@PBVMXmlEngNamespaceResolver@@AAVRXmlEngNodeSet@@@Z @ 81 NONAME ; class RXmlEngXPathResult TXmlEngXPathEvaluator::EvaluateWithDependenciesL(class TDesC8 const &, class TXmlEngNode, class MXmlEngNamespaceResolver const *, class RXmlEngNodeSet &)
	?EvaluateWithDependenciesL@RXmlEngXPathExpression@@QBE?AVRXmlEngXPathResult@@VTXmlEngNode@@AAVRXmlEngNodeSet@@PBVMXmlEngNamespaceResolver@@@Z @ 82 NONAME ; class RXmlEngXPathResult RXmlEngXPathExpression::EvaluateWithDependenciesL(class TXmlEngNode, class RXmlEngNodeSet &, class MXmlEngNamespaceResolver const *) const
	?ExtendedContext@RXmlEngXPathExpression@@QBEPAXXZ @ 83 NONAME ; void * RXmlEngXPathExpression::ExtendedContext(void) const
	?File@TXmlEngFileContainer@@QBEAAVRFile@@XZ @ 84 NONAME ; class RFile & TXmlEngFileContainer::File(void) const
	?FindElementByXmlIdL@RXmlEngDocument@@QBE?AVTXmlEngElement@@ABVTDesC8@@@Z @ 85 NONAME ; class TXmlEngElement RXmlEngDocument::FindElementByXmlIdL(class TDesC8 const &) const
	?FindOrCreateNsDeclL@TXmlEngElement@@QAE?AVTXmlEngNamespace@@ABVTDesC8@@0@Z @ 86 NONAME ; class TXmlEngNamespace TXmlEngElement::FindOrCreateNsDeclL(class TDesC8 const &, class TDesC8 const &)
	?FindOrCreateNsDeclL@TXmlEngElement@@QAE?AVTXmlEngNamespace@@ABVTDesC8@@@Z @ 87 NONAME ; class TXmlEngNamespace TXmlEngElement::FindOrCreateNsDeclL(class TDesC8 const &)
	?FinishL@RXmlEngDOMParser@@QAE?AVRXmlEngDocument@@XZ @ 88 NONAME ; class RXmlEngDocument RXmlEngDOMParser::FinishL(void)
	?FirstChild@TXmlEngNode@@QBE?AV1@XZ @ 89 NONAME ; class TXmlEngNode TXmlEngNode::FirstChild(void) const
	?Free@RXmlEngNodeSet@@QAEXXZ @ 90 NONAME ; void RXmlEngNodeSet::Free(void)
	?Free@RXmlEngXPathResult@@QAEXXZ @ 91 NONAME ; void RXmlEngXPathResult::Free(void)
	?GetAttributes@TXmlEngElement@@QBEXAAV?$RXmlEngNodeList@VTXmlEngAttr@@@@@Z @ 92 NONAME ; void TXmlEngElement::GetAttributes(class RXmlEngNodeList<class TXmlEngAttr> &) const
	?GetChildElements@TXmlEngElement@@QBEXAAV?$RXmlEngNodeList@VTXmlEngElement@@@@@Z @ 93 NONAME ; void TXmlEngElement::GetChildElements(class RXmlEngNodeList<class TXmlEngElement> &) const
	?GetChildNodes@TXmlEngNode@@QBEXAAV?$RXmlEngNodeList@VTXmlEngNode@@@@@Z @ 94 NONAME ; void TXmlEngNode::GetChildNodes(class RXmlEngNodeList<class TXmlEngNode> &) const
	?GetDataContainerList@RXmlEngDocument@@QAEHAAV?$RArray@VTXmlEngDataContainer@@@@@Z @ 95 NONAME ; int RXmlEngDocument::GetDataContainerList(class RArray<class TXmlEngDataContainer> &)
	?GetElementsByTagNameL@TXmlEngElement@@QBEXAAV?$RXmlEngNodeList@VTXmlEngElement@@@@ABVTDesC8@@1@Z @ 96 NONAME ; void TXmlEngElement::GetElementsByTagNameL(class RXmlEngNodeList<class TXmlEngElement> &, class TDesC8 const &, class TDesC8 const &) const
	?GetLastParsingError@RXmlEngDOMParser@@QAEHXZ @ 97 NONAME ; int RXmlEngDOMParser::GetLastParsingError(void)
	?HasAttributes@TXmlEngNode@@QBEHXZ @ 98 NONAME ; int TXmlEngNode::HasAttributes(void) const
	?HasChildNodes@TXmlEngNode@@QBEHXZ @ 99 NONAME ; int TXmlEngNode::HasChildNodes(void) const
	?HasNext@RXmlEngNodeListImpl@@QBEHXZ @ 100 NONAME ; int RXmlEngNodeListImpl::HasNext(void) const
	?HasNsDeclarationForPrefixL@TXmlEngElement@@QBEHABVTDesC8@@@Z @ 101 NONAME ; int TXmlEngElement::HasNsDeclarationForPrefixL(class TDesC8 const &) const
	?Implementation@RXmlEngDocument@@QBE?AVRXmlEngDOMImplementation@@XZ @ 102 NONAME ; class RXmlEngDOMImplementation RXmlEngDocument::Implementation(void) const
	?InitializeL@RXmlEngNodeSet@@QAEXXZ @ 103 NONAME ; void RXmlEngNodeSet::InitializeL(void)
	?InnerXmlL@TXmlEngNode@@QAEHAAVRBuf8@@@Z @ 104 NONAME ; int TXmlEngNode::InnerXmlL(class RBuf8 &)
	?InstanceMap@TXmlEngXPathEvaluator@@QAEPAVCXmlEngXFormsInstanceMap@@XZ @ 105 NONAME ; class CXmlEngXFormsInstanceMap * TXmlEngXPathEvaluator::InstanceMap(void)
	?IsDefault@TXmlEngNamespace@@QBEHXZ @ 106 NONAME ; int TXmlEngNamespace::IsDefault(void) const
	?IsDefaultNamespaceL@TXmlEngNode@@QBEHABVTDesC8@@@Z @ 107 NONAME ; int TXmlEngNode::IsDefaultNamespaceL(class TDesC8 const &) const
	?IsElementContentWhitespace@TXmlEngTextNode@@QBEHXZ @ 108 NONAME ; int TXmlEngTextNode::IsElementContentWhitespace(void) const
	?IsFunctionSupportedL@TXmlEngXPathConfiguration@@SAHABVTDesC8@@0@Z @ 109 NONAME ABSENT ; int TXmlEngXPathConfiguration::IsFunctionSupportedL(class TDesC8 const &, class TDesC8 const &)
	?IsSimpleTextContents@TXmlEngNode@@QBEHXZ @ 110 NONAME ; int TXmlEngNode::IsSimpleTextContents(void) const
	?IsStandalone@RXmlEngDocument@@QBEHXZ @ 111 NONAME ; int RXmlEngDocument::IsStandalone(void) const
	?IsUndefined@TXmlEngNamespace@@QBEHXZ @ 112 NONAME ; int TXmlEngNamespace::IsUndefined(void) const
	?LastChild@TXmlEngNode@@QBE?AV1@XZ @ 113 NONAME ; class TXmlEngNode TXmlEngNode::LastChild(void) const
	?Length@RXmlEngNodeSet@@QBEHXZ @ 114 NONAME ; int RXmlEngNodeSet::Length(void) const
	?Length@TXmlEngCharacterData@@QBEIXZ @ 115 NONAME ; unsigned int TXmlEngCharacterData::Length(void) const
	?LookupNamespaceByPrefixL@TXmlEngElement@@QBE?AVTXmlEngNamespace@@ABVTDesC8@@@Z @ 116 NONAME ; class TXmlEngNamespace TXmlEngElement::LookupNamespaceByPrefixL(class TDesC8 const &) const
	?LookupNamespaceByUriL@TXmlEngElement@@QBE?AVTXmlEngNamespace@@ABVTDesC8@@@Z @ 117 NONAME ; class TXmlEngNamespace TXmlEngElement::LookupNamespaceByUriL(class TDesC8 const &) const
	?LookupNamespaceUriL@TXmlEngNode@@QBE?AVTPtrC8@@ABVTDesC8@@@Z @ 118 NONAME ; class TPtrC8 TXmlEngNode::LookupNamespaceUriL(class TDesC8 const &) const
	?LookupPrefixL@TXmlEngNode@@QBE?AVTPtrC8@@ABVTDesC8@@@Z @ 119 NONAME ; class TPtrC8 TXmlEngNode::LookupPrefixL(class TDesC8 const &) const
	?MoveAfterSibling@TXmlEngNode@@QAEXV1@@Z @ 120 NONAME ; void TXmlEngNode::MoveAfterSibling(class TXmlEngNode)
	?MoveBeforeSibling@TXmlEngNode@@QAEXV1@@Z @ 121 NONAME ; void TXmlEngNode::MoveBeforeSibling(class TXmlEngNode)
	?Name@TXmlEngAttr@@QBE?AVTPtrC8@@XZ @ 122 NONAME ; class TPtrC8 TXmlEngAttr::Name(void) const
	?Name@TXmlEngNode@@QBE?AVTPtrC8@@XZ @ 123 NONAME ; class TPtrC8 TXmlEngNode::Name(void) const
	?NamespaceDeclaration@TXmlEngNode@@QBE?AVTXmlEngNamespace@@XZ @ 124 NONAME ; class TXmlEngNamespace TXmlEngNode::NamespaceDeclaration(void) const
	?NamespaceUri@TXmlEngNode@@QBE?AVTPtrC8@@XZ @ 125 NONAME ; class TPtrC8 TXmlEngNode::NamespaceUri(void) const
	?NewL@CXmlEngXFormsInstanceMap@@SAPAV1@XZ @ 126 NONAME ; class CXmlEngXFormsInstanceMap * CXmlEngXFormsInstanceMap::NewL(void)
	?NewLC@CXmlEngXFormsInstanceMap@@SAPAV1@XZ @ 127 NONAME ; class CXmlEngXFormsInstanceMap * CXmlEngXFormsInstanceMap::NewLC(void)
	?Next@RXmlEngNodeListImpl@@QAE?AVTXmlEngNode@@XZ @ 128 NONAME ; class TXmlEngNode RXmlEngNodeListImpl::Next(void)
	?NextSibling@TXmlEngNode@@QBE?AV1@XZ @ 129 NONAME ; class TXmlEngNode TXmlEngNode::NextSibling(void) const
	?NodeType@TXmlEngNode@@QBE?AW4TXmlEngDOMNodeType@1@XZ @ 130 NONAME ; enum TXmlEngNode::TXmlEngDOMNodeType TXmlEngNode::NodeType(void) const
	?Open@RXmlEngDOMParser@@QAEHAAVRXmlEngDOMImplementation@@@Z @ 131 NONAME ; int RXmlEngDOMParser::Open(class RXmlEngDOMImplementation &)
	?OpenL@RXmlEngDOMImplementation@@QAEXPAVRHeap@@@Z @ 132 NONAME ; void RXmlEngDOMImplementation::OpenL(class RHeap *)
	?OpenL@RXmlEngDocument@@QAEXAAVRXmlEngDOMImplementation@@@Z @ 133 NONAME ; void RXmlEngDocument::OpenL(class RXmlEngDOMImplementation &)
	?OpenL@RXmlEngDocument@@QAEXAAVRXmlEngDOMImplementation@@PAX@Z @ 134 NONAME ; void RXmlEngDocument::OpenL(class RXmlEngDOMImplementation &, void *)
	?OpenL@RXmlEngDocument@@QAEXAAVRXmlEngDOMImplementation@@VTXmlEngElement@@@Z @ 135 NONAME ; void RXmlEngDocument::OpenL(class RXmlEngDOMImplementation &, class TXmlEngElement)
	?OuterXmlL@TXmlEngNode@@QAEHAAVRBuf8@@@Z @ 136 NONAME ; int TXmlEngNode::OuterXmlL(class RBuf8 &)
	?OwnerDocument@TXmlEngNode@@QBE?AVRXmlEngDocument@@XZ @ 137 NONAME ; class RXmlEngDocument TXmlEngNode::OwnerDocument(void) const
	?OwnerElement@TXmlEngAttr@@QBE?BVTXmlEngElement@@XZ @ 138 NONAME ; class TXmlEngElement const TXmlEngAttr::OwnerElement(void) const
	?ParentNode@TXmlEngNode@@QBE?AV1@XZ @ 139 NONAME ; class TXmlEngNode TXmlEngNode::ParentNode(void) const
	?ParseChunkL@RXmlEngDOMParser@@QAEXABVTDesC8@@@Z @ 140 NONAME ; void RXmlEngDOMParser::ParseChunkL(class TDesC8 const &)
	?ParseFileL@RXmlEngDOMParser@@QAE?AVRXmlEngDocument@@AAVRFs@@ABVTDesC16@@I@Z @ 141 NONAME ; class RXmlEngDocument RXmlEngDOMParser::ParseFileL(class RFs &, class TDesC16 const &, unsigned int)
	?ParseFileL@RXmlEngDOMParser@@QAE?AVRXmlEngDocument@@ABVTDesC16@@I@Z @ 142 NONAME ; class RXmlEngDocument RXmlEngDOMParser::ParseFileL(class TDesC16 const &, unsigned int)
	?ParseL@RXmlEngDOMParser@@QAE?AVRXmlEngDocument@@ABVTDesC8@@@Z @ 143 NONAME ; class RXmlEngDocument RXmlEngDOMParser::ParseL(class TDesC8 const &)
	?Prefix@TXmlEngNamespace@@QBE?AVTPtrC8@@XZ @ 144 NONAME ; class TPtrC8 TXmlEngNamespace::Prefix(void) const
	?Prefix@TXmlEngNode@@QBE?AVTPtrC8@@XZ @ 145 NONAME ; class TPtrC8 TXmlEngNode::Prefix(void) const
	?PreviousSibling@TXmlEngNode@@QBE?AV1@XZ @ 146 NONAME ; class TXmlEngNode TXmlEngNode::PreviousSibling(void) const
	?ReconcileNamespacesL@TXmlEngNode@@QAEXXZ @ 147 NONAME ; void TXmlEngNode::ReconcileNamespacesL(void)
	?RegisterXmlIdL@RXmlEngDocument@@QAEXABVTDesC8@@0@Z @ 148 NONAME ; void RXmlEngDocument::RegisterXmlIdL(class TDesC8 const &, class TDesC8 const &)
	?RegisterXmlIdL@RXmlEngDocument@@QAEXVTXmlEngElement@@ABVTDesC8@@1@Z @ 149 NONAME ; void RXmlEngDocument::RegisterXmlIdL(class TXmlEngElement, class TDesC8 const &, class TDesC8 const &)
	?Remove@TXmlEngNode@@QAEXXZ @ 150 NONAME ; void TXmlEngNode::Remove(void)
	?RemoveAttributeL@TXmlEngElement@@QAEXABVTDesC8@@0@Z @ 151 NONAME ; void TXmlEngElement::RemoveAttributeL(class TDesC8 const &, class TDesC8 const &)
	?RemoveAttributes@TXmlEngElement@@QAEXXZ @ 152 NONAME ; void TXmlEngElement::RemoveAttributes(void)
	?RemoveChildElementsL@TXmlEngElement@@QAEXABVTDesC8@@0@Z @ 153 NONAME ; void TXmlEngElement::RemoveChildElementsL(class TDesC8 const &, class TDesC8 const &)
	?RemoveChildren@TXmlEngElement@@QAEXXZ @ 154 NONAME ; void TXmlEngElement::RemoveChildren(void)
	?RemoveEntryL@CXmlEngXFormsInstanceMap@@QAEXABVTDesC8@@@Z @ 155 NONAME ; void CXmlEngXFormsInstanceMap::RemoveEntryL(class TDesC8 const &)
	?RemoveExtensionFunction@TXmlEngXPathConfiguration@@SAXABVTXmlEngExtensionFunctionDescriptor@@@Z @ 156 NONAME ABSENT ; void TXmlEngXPathConfiguration::RemoveExtensionFunction(class TXmlEngExtensionFunctionDescriptor const &)
	?RemoveExtensionFunctionVector@TXmlEngXPathConfiguration@@SAXABV?$RArray@VTXmlEngExtensionFunctionDescriptor@@@@I@Z @ 157 NONAME ABSENT ; void TXmlEngXPathConfiguration::RemoveExtensionFunctionVector(class RArray<class TXmlEngExtensionFunctionDescriptor> const &, unsigned int)
	?RemoveNamespaceDeclarations@TXmlEngElement@@QAEXXZ @ 158 NONAME ; void TXmlEngElement::RemoveNamespaceDeclarations(void)
	?RemoveUserData@TXmlEngNode@@QAEPAVMXmlEngUserData@@XZ @ 159 NONAME ; class MXmlEngUserData * TXmlEngNode::RemoveUserData(void)
	?ReplaceWith@TXmlEngNode@@QAEXV1@@Z @ 160 NONAME ; void TXmlEngNode::ReplaceWith(class TXmlEngNode)
	?ResetExtensionFunctionsL@TXmlEngXPathConfiguration@@SAXXZ @ 161 NONAME ABSENT ; void TXmlEngXPathConfiguration::ResetExtensionFunctionsL(void)
	?SaveL@RXmlEngDocument@@QBEHAAVMXmlEngOutputStream@@VTXmlEngNode@@ABVTXmlEngSerializationOptions@@@Z @ 162 NONAME ; int RXmlEngDocument::SaveL(class MXmlEngOutputStream &, class TXmlEngNode, class TXmlEngSerializationOptions const &) const
	?SaveL@RXmlEngDocument@@QBEHAAVRBuf8@@VTXmlEngNode@@ABVTXmlEngSerializationOptions@@@Z @ 163 NONAME ; int RXmlEngDocument::SaveL(class RBuf8 &, class TXmlEngNode, class TXmlEngSerializationOptions const &) const
	?SaveL@RXmlEngDocument@@QBEHAAVRFs@@ABVTDesC16@@VTXmlEngNode@@ABVTXmlEngSerializationOptions@@@Z @ 164 NONAME ; int RXmlEngDocument::SaveL(class RFs &, class TDesC16 const &, class TXmlEngNode, class TXmlEngSerializationOptions const &) const
	?SaveL@RXmlEngDocument@@QBEHABVTDesC16@@VTXmlEngNode@@ABVTXmlEngSerializationOptions@@@Z @ 165 NONAME ; int RXmlEngDocument::SaveL(class TDesC16 const &, class TXmlEngNode, class TXmlEngSerializationOptions const &) const
	?SetAsFirstSibling@TXmlEngNode@@QAEXXZ @ 166 NONAME ; void TXmlEngNode::SetAsFirstSibling(void)
	?SetAsLastSibling@TXmlEngNode@@QAEXXZ @ 167 NONAME ; void TXmlEngNode::SetAsLastSibling(void)
	?SetAttributeL@TXmlEngElement@@QAEXABVTDesC8@@000@Z @ 168 NONAME ; void TXmlEngElement::SetAttributeL(class TDesC8 const &, class TDesC8 const &, class TDesC8 const &, class TDesC8 const &)
	?SetAttributeNodeL@TXmlEngElement@@QAEXVTXmlEngAttr@@@Z @ 169 NONAME ; void TXmlEngElement::SetAttributeNodeL(class TXmlEngAttr)
	?SetContentsL@TXmlEngBinaryContainer@@QAEXABVTDesC8@@@Z @ 170 NONAME ; void TXmlEngBinaryContainer::SetContentsL(class TDesC8 const &)
	?SetContentsL@TXmlEngCharacterData@@QAEXABVTDesC8@@@Z @ 171 NONAME ; void TXmlEngCharacterData::SetContentsL(class TDesC8 const &)
	?SetDataL@TXmlEngProcessingInstruction@@QAEXABVTDesC8@@@Z @ 172 NONAME ; void TXmlEngProcessingInstruction::SetDataL(class TDesC8 const &)
	?SetDefaultNamespaceL@TXmlEngElement@@QAE?AVTXmlEngNamespace@@ABVTDesC8@@@Z @ 173 NONAME ; class TXmlEngNamespace TXmlEngElement::SetDefaultNamespaceL(class TDesC8 const &)
	?SetDocumentElement@RXmlEngDocument@@QAEXVTXmlEngElement@@@Z @ 174 NONAME ; void RXmlEngDocument::SetDocumentElement(class TXmlEngElement)
	?SetDocumentUriL@RXmlEngDocument@@QAEXABVTDesC8@@@Z @ 175 NONAME ; void RXmlEngDocument::SetDocumentUriL(class TDesC8 const &)
	?SetEscapedTextL@TXmlEngElement@@QAEXABVTDesC8@@@Z @ 176 NONAME ; void TXmlEngElement::SetEscapedTextL(class TDesC8 const &)
	?SetEscapedValueL@TXmlEngAttr@@QAEXABVTDesC8@@@Z @ 177 NONAME ; void TXmlEngAttr::SetEscapedValueL(class TDesC8 const &)
	?SetExtendedContext@RXmlEngXPathExpression@@QAEXPAX@Z @ 178 NONAME ; void RXmlEngXPathExpression::SetExtendedContext(void *)
	?SetInstanceMap@TXmlEngXPathEvaluator@@QAEXPAVCXmlEngXFormsInstanceMap@@@Z @ 179 NONAME ; void TXmlEngXPathEvaluator::SetInstanceMap(class CXmlEngXFormsInstanceMap *)
	?SetNoDefaultNamespaceL@TXmlEngElement@@QAEXXZ @ 180 NONAME ; void TXmlEngElement::SetNoDefaultNamespaceL(void)
	?SetNodeFilter@TXmlEngSerializationOptions@@QAEXPAVMXmlEngNodeFilter@@@Z @ 181 NONAME ; void TXmlEngSerializationOptions::SetNodeFilter(class MXmlEngNodeFilter *)
	?SetStandalone@RXmlEngDocument@@QAEXH@Z @ 182 NONAME ; void RXmlEngDocument::SetStandalone(int)
	?SetTextL@TXmlEngElement@@QAEXABVTDesC8@@@Z @ 183 NONAME ; void TXmlEngElement::SetTextL(class TDesC8 const &)
	?SetTextNoEncL@TXmlEngElement@@QAEXABVTDesC8@@@Z @ 184 NONAME ; void TXmlEngElement::SetTextNoEncL(class TDesC8 const &)
	?SetValueL@TXmlEngAttr@@QAEXABVTDesC8@@@Z @ 185 NONAME ; void TXmlEngAttr::SetValueL(class TDesC8 const &)
	?SetValueL@TXmlEngNode@@QAEXABVTDesC8@@@Z @ 186 NONAME ; void TXmlEngNode::SetValueL(class TDesC8 const &)
	?SetValueNoEncL@TXmlEngAttr@@QAEXABVTDesC8@@@Z @ 187 NONAME ; void TXmlEngAttr::SetValueNoEncL(class TDesC8 const &)
	?SetXmlVersionL@RXmlEngDocument@@QAEXABVTDesC8@@@Z @ 188 NONAME ; void RXmlEngDocument::SetXmlVersionL(class TDesC8 const &)
	?Size@TXmlEngDataContainer@@QBEIXZ @ 189 NONAME ; unsigned int TXmlEngDataContainer::Size(void) const
	?SubstituteForL@TXmlEngNode@@QAE?AV1@V1@@Z @ 190 NONAME ; class TXmlEngNode TXmlEngNode::SubstituteForL(class TXmlEngNode)
	?Target@TXmlEngProcessingInstruction@@QBE?AVTPtrC8@@XZ @ 191 NONAME ; class TPtrC8 TXmlEngProcessingInstruction::Target(void) const
	?Text@TXmlEngElement@@QBE?AVTPtrC8@@XZ @ 192 NONAME ; class TPtrC8 TXmlEngElement::Text(void) const
	?TheXMLNamespaceL@TXmlEngElement@@QBE?AVTXmlEngNamespace@@XZ @ 193 NONAME ; class TXmlEngNamespace TXmlEngElement::TheXMLNamespaceL(void) const
	?ToBoolean@TXmlEngXPathObject@@SAHABVRXmlEngNodeSet@@@Z @ 194 NONAME ABSENT ; int TXmlEngXPathObject::ToBoolean(class RXmlEngNodeSet const &)
	?ToBoolean@TXmlEngXPathObject@@SAHABVTDesC8@@@Z @ 195 NONAME ABSENT ; int TXmlEngXPathObject::ToBoolean(class TDesC8 const &)
	?ToBoolean@TXmlEngXPathObject@@SAHABVTXmlEngNode@@@Z @ 196 NONAME ABSENT ; int TXmlEngXPathObject::ToBoolean(class TXmlEngNode const &)
	?ToBoolean@TXmlEngXPathObject@@SAHN@Z @ 197 NONAME ABSENT ; int TXmlEngXPathObject::ToBoolean(double)
	?ToBooleanL@TXmlEngXPathObject@@SAHABVTDesC8@@@Z @ 198 NONAME ABSENT ; int TXmlEngXPathObject::ToBooleanL(class TDesC8 const &)
	?ToNumberL@TXmlEngXPathObject@@SANABVRXmlEngNodeSet@@@Z @ 199 NONAME ABSENT ; double TXmlEngXPathObject::ToNumberL(class RXmlEngNodeSet const &)
	?ToNumberL@TXmlEngXPathObject@@SANABVTDesC8@@@Z @ 200 NONAME ABSENT ; double TXmlEngXPathObject::ToNumberL(class TDesC8 const &)
	?ToNumberL@TXmlEngXPathObject@@SANABVTXmlEngNode@@@Z @ 201 NONAME ABSENT ; double TXmlEngXPathObject::ToNumberL(class TXmlEngNode const &)
	?ToNumberL@TXmlEngXPathObject@@SANH@Z @ 202 NONAME ABSENT ; double TXmlEngXPathObject::ToNumberL(int)
	?ToStringL@TXmlEngXPathObject@@SAXABVRXmlEngNodeSet@@AAVRBuf8@@@Z @ 203 NONAME ABSENT ; void TXmlEngXPathObject::ToStringL(class RXmlEngNodeSet const &, class RBuf8 &)
	?ToStringL@TXmlEngXPathObject@@SAXABVTXmlEngNode@@AAVRBuf8@@@Z @ 204 NONAME ABSENT ; void TXmlEngXPathObject::ToStringL(class TXmlEngNode const &, class RBuf8 &)
	?ToStringL@TXmlEngXPathObject@@SAXHAAVRBuf8@@@Z @ 205 NONAME ABSENT ; void TXmlEngXPathObject::ToStringL(int, class RBuf8 &)
	?ToStringL@TXmlEngXPathObject@@SAXNAAVRBuf8@@@Z @ 206 NONAME ABSENT ; void TXmlEngXPathObject::ToStringL(double, class RBuf8 &)
	?Type@RXmlEngXPathResult@@QBE?AW4TXmlEngXPathResultType@1@XZ @ 207 NONAME ; enum RXmlEngXPathResult::TXmlEngXPathResultType RXmlEngXPathResult::Type(void) const
	?Unlink@TXmlEngNode@@QAE?AV1@XZ @ 208 NONAME ; class TXmlEngNode TXmlEngNode::Unlink(void)
	?Uri@TXmlEngNamespace@@QBE?AVTPtrC8@@XZ @ 209 NONAME ; class TPtrC8 TXmlEngNamespace::Uri(void) const
	?UserData@TXmlEngNode@@QBEPAVMXmlEngUserData@@XZ @ 210 NONAME ; class MXmlEngUserData * TXmlEngNode::UserData(void) const
	?Value@TXmlEngAttr@@QBE?AVTPtrC8@@XZ @ 211 NONAME ; class TPtrC8 TXmlEngAttr::Value(void) const
	?Value@TXmlEngNode@@QBE?AVTPtrC8@@XZ @ 212 NONAME ; class TPtrC8 TXmlEngNode::Value(void) const
	?WholeTextContentsCopyL@TXmlEngNode@@QBEXAAVRBuf8@@@Z @ 213 NONAME ; void TXmlEngNode::WholeTextContentsCopyL(class RBuf8 &) const
	?WholeValueCopyL@TXmlEngAttr@@QBEXAAVRBuf8@@@Z @ 214 NONAME ; void TXmlEngAttr::WholeValueCopyL(class RBuf8 &) const
	?XmlEncoding@RXmlEngDocument@@QBE?AVTPtrC8@@XZ @ 215 NONAME ; class TPtrC8 RXmlEngDocument::XmlEncoding(void) const
	?XmlEngRenameElementL@TDomUtils@@QAEXVTXmlEngElement@@ABVTDesC8@@11@Z @ 216 NONAME ; void TDomUtils::XmlEngRenameElementL(class TXmlEngElement, class TDesC8 const &, class TDesC8 const &, class TDesC8 const &)
	?XmlVersion@RXmlEngDocument@@QBE?AVTPtrC8@@XZ @ 217 NONAME ; class TPtrC8 RXmlEngDocument::XmlVersion(void) const
	?ReplaceWithL@TXmlEngNode@@QAEXV1@@Z @ 218 NONAME ; void TXmlEngNode::ReplaceWithL(class TXmlEngNode)
	?SetDataSerializer@TXmlEngSerializationOptions@@QAEXPAVMXmlEngDataSerializer@@@Z @ 219 NONAME ; void TXmlEngSerializationOptions::SetDataSerializer(class MXmlEngDataSerializer *)
	?CreateDocumentFragmentL@RXmlEngDocument@@QAE?AVTXmlEngDocumentFragment@@XZ @ 220 NONAME ; class TXmlEngDocumentFragment RXmlEngDocument::CreateDocumentFragmentL(void)
	?ToBoolean@XmlEngXPathUtils@@SAHABVRXmlEngNodeSet@@@Z @ 221 NONAME ; int XmlEngXPathUtils::ToBoolean(class RXmlEngNodeSet const &)
	?ToBoolean@XmlEngXPathUtils@@SAHABVTDesC8@@@Z @ 222 NONAME ; int XmlEngXPathUtils::ToBoolean(class TDesC8 const &)
	?ToBoolean@XmlEngXPathUtils@@SAHABVTXmlEngNode@@@Z @ 223 NONAME ; int XmlEngXPathUtils::ToBoolean(class TXmlEngNode const &)
	?ToBoolean@XmlEngXPathUtils@@SAHN@Z @ 224 NONAME ; int XmlEngXPathUtils::ToBoolean(double)
	?ToBooleanL@XmlEngXPathUtils@@SAHABVTDesC8@@@Z @ 225 NONAME ; int XmlEngXPathUtils::ToBooleanL(class TDesC8 const &)
	?ToNumberL@XmlEngXPathUtils@@SANABVRXmlEngNodeSet@@@Z @ 226 NONAME ; double XmlEngXPathUtils::ToNumberL(class RXmlEngNodeSet const &)
	?ToNumberL@XmlEngXPathUtils@@SANABVTDesC8@@@Z @ 227 NONAME ; double XmlEngXPathUtils::ToNumberL(class TDesC8 const &)
	?ToNumberL@XmlEngXPathUtils@@SANABVTXmlEngNode@@@Z @ 228 NONAME ; double XmlEngXPathUtils::ToNumberL(class TXmlEngNode const &)
	?ToNumberL@XmlEngXPathUtils@@SANH@Z @ 229 NONAME ; double XmlEngXPathUtils::ToNumberL(int)
	?ToStringL@XmlEngXPathUtils@@SAXABVRXmlEngNodeSet@@AAVRBuf8@@@Z @ 230 NONAME ; void XmlEngXPathUtils::ToStringL(class RXmlEngNodeSet const &, class RBuf8 &)
	?ToStringL@XmlEngXPathUtils@@SAXABVTXmlEngNode@@AAVRBuf8@@@Z @ 231 NONAME ; void XmlEngXPathUtils::ToStringL(class TXmlEngNode const &, class RBuf8 &)
	?ToStringL@XmlEngXPathUtils@@SAXHAAVRBuf8@@@Z @ 232 NONAME ; void XmlEngXPathUtils::ToStringL(int, class RBuf8 &)
	?ToStringL@XmlEngXPathUtils@@SAXNAAVRBuf8@@@Z @ 233 NONAME ; void XmlEngXPathUtils::ToStringL(double, class RBuf8 &)
	??0TXmlEngExtensionFunctionDescriptor@@QAE@XZ @ 234 NONAME ; TXmlEngExtensionFunctionDescriptor::TXmlEngExtensionFunctionDescriptor(void)
	?AddExtensionFunctionL@XmlEngXPathConfiguration@@SAXABVTXmlEngExtensionFunctionDescriptor@@@Z @ 235 NONAME ; void XmlEngXPathConfiguration::AddExtensionFunctionL(class TXmlEngExtensionFunctionDescriptor const &)
	?AddExtensionFunctionVectorL@XmlEngXPathConfiguration@@SAXABV?$RArray@VTXmlEngExtensionFunctionDescriptor@@@@I@Z @ 236 NONAME ; void XmlEngXPathConfiguration::AddExtensionFunctionVectorL(class RArray<class TXmlEngExtensionFunctionDescriptor> const &, unsigned int)
	?AddNativeExtensionFunctionL@XmlEngXPathConfiguration@@SAXABVTXmlEngExtensionFunctionDescriptor@@@Z @ 237 NONAME ; void XmlEngXPathConfiguration::AddNativeExtensionFunctionL(class TXmlEngExtensionFunctionDescriptor const &)
	?AddNativeExtensionFunctionVectorL@XmlEngXPathConfiguration@@SAXABV?$RArray@VTXmlEngExtensionFunctionDescriptor@@@@I@Z @ 238 NONAME ; void XmlEngXPathConfiguration::AddNativeExtensionFunctionVectorL(class RArray<class TXmlEngExtensionFunctionDescriptor> const &, unsigned int)
	?IsFunctionSupportedL@XmlEngXPathConfiguration@@SAHABVTDesC8@@0@Z @ 239 NONAME ; int XmlEngXPathConfiguration::IsFunctionSupportedL(class TDesC8 const &, class TDesC8 const &)
	?RemoveExtensionFunction@XmlEngXPathConfiguration@@SAXABVTXmlEngExtensionFunctionDescriptor@@@Z @ 240 NONAME ; void XmlEngXPathConfiguration::RemoveExtensionFunction(class TXmlEngExtensionFunctionDescriptor const &)
	?RemoveExtensionFunctionVector@XmlEngXPathConfiguration@@SAXABV?$RArray@VTXmlEngExtensionFunctionDescriptor@@@@I@Z @ 241 NONAME ; void XmlEngXPathConfiguration::RemoveExtensionFunctionVector(class RArray<class TXmlEngExtensionFunctionDescriptor> const &, unsigned int)
	?ResetExtensionFunctionsL@XmlEngXPathConfiguration@@SAXXZ @ 242 NONAME ; void XmlEngXPathConfiguration::ResetExtensionFunctionsL(void)
	?Unused_Func1@XmlEngXPathConfiguration@@SAXH@Z @ 243 NONAME ; void XmlEngXPathConfiguration::Unused_Func1(int)
	?RenameElementL@TXmlEngElement@@QAEXABVTDesC8@@00@Z @ 244 NONAME ; void TXmlEngElement::RenameElementL(class TDesC8 const &, class TDesC8 const &, class TDesC8 const &)
	?Close@RXmlEngDOMImplementation@@QAEXXZ @ 245 NONAME ; void RXmlEngDOMImplementation::Close(void)

