EXPORTS
	_ZN11CTestServer10ConstructLERK7TDesC16 @ 1 NONAME
	_ZN11CTestServerC2Ev @ 2 NONAME
	_ZN11CTestServerD0Ev @ 3 NONAME
	_ZN11CTestServerD1Ev @ 4 NONAME
	_ZN11CTestServerD2Ev @ 5 NONAME
	_ZN12CTestSession8ServiceLERK9RMessage2 @ 6 NONAME
	_ZN12CTestSessionC1Ev @ 7 NONAME
	_ZN12CTestSessionC2Ev @ 8 NONAME
	_ZN12CTestSessionD0Ev @ 9 NONAME
	_ZN12CTestSessionD1Ev @ 10 NONAME
	_ZN12CTestSessionD2Ev @ 11 NONAME
	_ZN12RTestSession11RunTestStepERK7TDesC16R6TDes16R14TRequestStatus @ 12 NONAME
	_ZN12RTestSession13AbortTestStepEv @ 13 NONAME
	_ZN12RTestSession4OpenER9RTestServRK7TDesC16i @ 14 NONAME
	_ZN12RTestSession5CloseEv @ 15 NONAME
	_ZN18CTestExecuteLogger11WriteFormatE11TRefByValueIK6TDesC8Ez @ 16 NONAME
	_ZN18CTestExecuteLogger11WriteFormatE11TRefByValueIK7TDesC16Ez @ 17 NONAME
	_ZN18CTestExecuteLogger16SetLoggerOptionsEi @ 18 NONAME
	_ZN18CTestExecuteLogger17LogTestCaseResultERK7TDesC16iiS2_S2_8TVerdict @ 19 NONAME
	_ZN18CTestExecuteLogger17TerminateLoggingLEiii @ 20 NONAME
	_ZN18CTestExecuteLogger18InitialiseLoggingLERK7TDesC16ii @ 21 NONAME
	_ZN18CTestExecuteLogger22PrintCurrentScriptLineER6TDes16 @ 22 NONAME
	_ZN18CTestExecuteLogger5CloseEv @ 23 NONAME
	_ZN18CTestExecuteLogger5WriteERK6TDesC8 @ 24 NONAME
	_ZN18CTestExecuteLogger5WriteERK7TDesC16 @ 25 NONAME
	_ZN18CTestExecuteLogger7ConnectEv @ 26 NONAME
	_ZN18CTestExecuteLogger8LogExtraEPKhii11TRefByValueIK7TDesC16Ez @ 27 NONAME
	_ZN18CTestExecuteLogger8LogToXmlEPKhiiRK7TDesC16 @ 28 NONAME
	_ZN18CTestExecuteLogger8LogToXmlEPKhiiRK7TDesC16iP14TExtraLogField @ 29 NONAME
	_ZN18CTestExecuteLogger9LogResultE8TVerdictRK7TDesC16iS3_S3_i @ 30 NONAME
	_ZN18CTestExecuteLogger9ShareAutoEv @ 31 NONAME
	_ZN18CTestExecuteLoggerC1E14TLoggerOptions @ 32 NONAME
	_ZN18CTestExecuteLoggerC2E14TLoggerOptions @ 33 NONAME
	_ZN18CTestExecuteLoggerD0Ev @ 34 NONAME
	_ZN18CTestExecuteLoggerD1Ev @ 35 NONAME
	_ZN18CTestExecuteLoggerD2Ev @ 36 NONAME
	_ZN19CTestExecuteIniData10ConstructLEv @ 37 NONAME
	_ZN19CTestExecuteIniData18GetKeyValueFromIniERK7TDesC16R6TDes16 @ 38 NONAME
	_ZN19CTestExecuteIniData18GetKeyValueFromIniERK7TDesC16Ri @ 39 NONAME
	_ZN19CTestExecuteIniData20ExtractValuesFromIniEv @ 40 NONAME
	_ZN19CTestExecuteIniData4NewLEv @ 41 NONAME
	_ZN19CTestExecuteIniData5NewLCEv @ 42 NONAME
	_ZN19CTestExecuteIniDataC1Ev @ 43 NONAME
	_ZN19CTestExecuteIniDataC2Ev @ 44 NONAME
	_ZN19CTestExecuteIniDataD0Ev @ 45 NONAME
	_ZN19CTestExecuteIniDataD1Ev @ 46 NONAME
	_ZN19CTestExecuteIniDataD2Ev @ 47 NONAME
	_ZN9CTestStep15ReadSharedDataLERK7TDesC16R6TDes16 @ 48 NONAME
	_ZN9CTestStep15SetTestStepNameERK7TDesC16 @ 49 NONAME
	_ZN9CTestStep15testBooleanTrueEiPKhi @ 50 NONAME
	_ZN9CTestStep15testBooleanTrueEiPKhii @ 51 NONAME
	_ZN9CTestStep16GetHexFromConfigERK7TDesC16S2_Ri @ 52 NONAME
	_ZN9CTestStep16GetIntFromConfigERK7TDesC16S2_Ri @ 53 NONAME
	_ZN9CTestStep16SetTestStepErrorERKi @ 54 NONAME
	_ZN9CTestStep16WriteHexToConfigERK7TDesC16S2_RKi @ 55 NONAME
	_ZN9CTestStep16WriteIntToConfigERK7TDesC16S2_RKi @ 56 NONAME
	_ZN9CTestStep16WriteSharedDataLERK7TDesC16RS0_9TModeCopy @ 57 NONAME
	_ZN9CTestStep16testBooleanTrueLEiPKhi @ 58 NONAME
	_ZN9CTestStep16testBooleanTrueLEiPKhii @ 59 NONAME
	_ZN9CTestStep17GetBoolFromConfigERK7TDesC16S2_Ri @ 60 NONAME
	_ZN9CTestStep17WriteBoolToConfigERK7TDesC16S2_RKi @ 61 NONAME
	_ZN9CTestStep19GetStringFromConfigERK7TDesC16S2_R7TPtrC16 @ 62 NONAME
	_ZN9CTestStep19WriteStringToConfigERK7TDesC16S2_RK7TPtrC16 @ 63 NONAME
	_ZN9CTestStep19doTestStepPreambleLEv @ 64 NONAME
	_ZN9CTestStep20doTestStepPostambleLEv @ 65 NONAME
	_ZN9CTestStep22TestCheckPointCompareLEiiRK7TDesC16PKhi @ 66 NONAME
	_ZN9CTestStep28testBooleanTrueWithErrorCodeEiiPKhi @ 67 NONAME
	_ZN9CTestStep28testBooleanTrueWithErrorCodeEiiPKhii @ 68 NONAME
	_ZN9CTestStep29testBooleanTrueWithErrorCodeLEiiPKhi @ 69 NONAME
	_ZN9CTestStep29testBooleanTrueWithErrorCodeLEiiPKhii @ 70 NONAME
	_ZN9CTestStepC2Ev @ 71 NONAME
	_ZN9CTestStepD0Ev @ 72 NONAME
	_ZN9CTestStepD1Ev @ 73 NONAME
	_ZN9CTestStepD2Ev @ 74 NONAME
	_ZN9RTestServ7ConnectERK7TDesC16i @ 75 NONAME
	_ZNK11CTestServer11NewSessionLERK8TVersionRK9RMessage2 @ 76 NONAME
	_ZNK9CTestStep13GetServerNameEv @ 77 NONAME
	_ZNK9RTestServ10ServerNameEv @ 78 NONAME
	_ZTI11CTestServer @ 79 NONAME ; #<TI>#
	_ZTI12CStepControl @ 80 NONAME ; #<TI>#
	_ZTI12CTestSession @ 81 NONAME ; #<TI>#
	_ZTI18CTestExecuteLogger @ 82 NONAME ; #<TI>#
	_ZTI19CTestExecuteIniData @ 83 NONAME ; #<TI>#
	_ZTI22CPersistentStepControl @ 84 NONAME ; #<TI>#
	_ZTI9CTestStep @ 85 NONAME ; #<TI>#
	_ZTV11CTestServer @ 86 NONAME ; #<VT>#
	_ZTV12CStepControl @ 87 NONAME ; #<VT>#
	_ZTV12CTestSession @ 88 NONAME ; #<VT>#
	_ZTV18CTestExecuteLogger @ 89 NONAME ; #<VT>#
	_ZTV19CTestExecuteIniData @ 90 NONAME ; #<VT>#
	_ZTV22CPersistentStepControl @ 91 NONAME ; #<VT>#
	_ZTV9CTestStep @ 92 NONAME ; #<VT>#
	_ZTI17CScriptPreProcess @ 93 NONAME ; #<TI>#
	_ZTV17CScriptPreProcess @ 94 NONAME ; #<VT>#
	_ZN9CTestStep15SetHeapFailNextEi @ 95 NONAME
	_ZN9CTestStep17ResetHeapFailNextEv @ 96 NONAME
	_ZN9CTestStep20CheckForHeapFailNextEv @ 97 NONAME
	_ZN9CTestStep12TestCaseNameER6TDes16 @ 98 NONAME
	_ZN12CDataWrapper11BlockResultEv @ 99 NONAME
	_ZN12CDataWrapper13SetAsyncErrorEii @ 100 NONAME
	_ZN12CDataWrapper14GetDataObjectLERK7TDesC16 @ 101 NONAME
	_ZN12CDataWrapper14SetBlockResultE8TVerdict @ 102 NONAME
	_ZN12CDataWrapper14SetDataObjectLERK7TDesC16Pv @ 103 NONAME
	_ZN12CDataWrapper15GetDataWrapperLERK7TDesC16 @ 104 NONAME
	_ZN12CDataWrapper15ReadSharedDataLERK7TDesC16R6TDes16 @ 105 NONAME
	_ZN12CDataWrapper16GetHexFromConfigERK7TDesC16S2_Ri @ 106 NONAME
	_ZN12CDataWrapper16GetIntFromConfigERK7TDesC16S2_Ri @ 107 NONAME
	_ZN12CDataWrapper16WriteHexToConfigERK7TDesC16S2_RKi @ 108 NONAME
	_ZN12CDataWrapper16WriteIntToConfigERK7TDesC16S2_RKi @ 109 NONAME
	_ZN12CDataWrapper16WriteSharedDataLERK7TDesC16RS0_9TModeCopy @ 110 NONAME
	_ZN12CDataWrapper17GetBoolFromConfigERK7TDesC16S2_Ri @ 111 NONAME
	_ZN12CDataWrapper17SetDataDictionaryEP15CDataDictionary @ 112 NONAME
	_ZN12CDataWrapper17WriteBoolToConfigERK7TDesC16S2_RKi @ 113 NONAME
	_ZN12CDataWrapper19GetStringFromConfigERK7TDesC16S2_R7TPtrC16 @ 114 NONAME
	_ZN12CDataWrapper19WriteStringToConfigERK7TDesC16S2_RK7TPtrC16 @ 115 NONAME
	_ZN12CDataWrapper22SetTestBlockControllerEP20CTestBlockController @ 116 NONAME
	_ZN12CDataWrapper4RunLEP7CActivei @ 117 NONAME
	_ZN12CDataWrapper6LoggerEv @ 118 NONAME
	_ZN12CDataWrapper8DoCancelEP7CActivei @ 119 NONAME
	_ZN12CDataWrapper8SetErrorEi @ 120 NONAME
	_ZN12CDataWrapperC2Ev @ 121 NONAME
	_ZN12CDataWrapperD0Ev @ 122 NONAME
	_ZN12CDataWrapperD1Ev @ 123 NONAME
	_ZN12CDataWrapperD2Ev @ 124 NONAME
	_ZN12CTestServer210ConstructLEv @ 125 NONAME
	_ZN12CTestServer213PutAndDisownLERK7TDesC16PvPFvS3_E @ 126 NONAME
	_ZN12CTestServer214CreateTestStepERK7TDesC16 @ 127 NONAME
	_ZN12CTestServer216GetObjectAndOwnLERK7TDesC16 @ 128 NONAME
	_ZN12CTestServer222CreateActiveSchedulerLEv @ 129 NONAME
	_ZN12CTestServer222DeleteActiveSchedulerLEv @ 130 NONAME
	_ZN12CTestServer2C2Ev @ 131 NONAME
	_ZN12CTestServer2D0Ev @ 132 NONAME
	_ZN12CTestServer2D1Ev @ 133 NONAME
	_ZN12CTestServer2D2Ev @ 134 NONAME
	_ZN12RTestSession12RunTestBlockERK7TDesC16R6TDes16R5TDes8R14TRequestStatus @ 135 NONAME
	_ZN12RTestSession4OpenER9RTestServi @ 136 NONAME
	_ZN15CActiveCallback10ConstructLEv @ 137 NONAME
	_ZN15CActiveCallback4NewLER15MActiveCallbacki @ 138 NONAME
	_ZN15CActiveCallback4RunLEv @ 139 NONAME
	_ZN15CActiveCallback5NewLCER15MActiveCallbacki @ 140 NONAME
	_ZN15CActiveCallback8ActivateEi @ 141 NONAME
	_ZN15CActiveCallback8DoCancelEv @ 142 NONAME
	_ZN15CActiveCallback9KickStateEv @ 143 NONAME
	_ZN15CActiveCallbackC1ER15MActiveCallbacki @ 144 NONAME
	_ZN15CActiveCallbackC2ER15MActiveCallbacki @ 145 NONAME
	_ZN15CActiveCallbackD0Ev @ 146 NONAME
	_ZN15CActiveCallbackD1Ev @ 147 NONAME
	_ZN15CActiveCallbackD2Ev @ 148 NONAME
	_ZN17CCommandProcessor4NewLER25MCommandProcessorCallbacki @ 149 NONAME
	_ZN17CCommandProcessor5NewLCER25MCommandProcessorCallbacki @ 150 NONAME
	_ZN17CCommandProcessor8ActivateEv @ 151 NONAME
	_ZN17CCommandProcessor9KickStateEv @ 152 NONAME
	_ZN17CCommandProcessorD0Ev @ 153 NONAME
	_ZN17CCommandProcessorD1Ev @ 154 NONAME
	_ZN17CCommandProcessorD2Ev @ 155 NONAME
	_ZN18CTestExecuteLogger8LogBlockEP13CArrayFixFlatI13TTEFBlockItemEi @ 156 NONAME
	_ZN20CTestBlockController10DoCommandLER13TTEFBlockItemi @ 157 NONAME
	_ZN20CTestBlockController10StartTimerERK13TTEFBlockItem @ 158 NONAME
	_ZN20CTestBlockController11BlockResultEv @ 159 NONAME
	_ZN20CTestBlockController11CancelTimerEv @ 160 NONAME
	_ZN20CTestBlockController11doTestStepLEv @ 161 NONAME
	_ZN20CTestBlockController12NextCommandLEv @ 162 NONAME
	_ZN20CTestBlockController13SetAsyncErrorEii @ 163 NONAME
	_ZN20CTestBlockController13SetBlockArrayEP13CArrayFixFlatI13TTEFBlockItemE @ 164 NONAME
	_ZN20CTestBlockController13SetSharedDataEP11MSharedData @ 165 NONAME
	_ZN20CTestBlockController13StartCommandsEv @ 166 NONAME
	_ZN20CTestBlockController14SetBlockResultE8TVerdict @ 167 NONAME
	_ZN20CTestBlockController14TimerCompletedEv @ 168 NONAME
	_ZN20CTestBlockController19OutstandingCallbackEPv @ 169 NONAME
	_ZN20CTestBlockController19OutstandingCallbackEv @ 170 NONAME
	_ZN20CTestBlockController19doTestStepPreambleLEv @ 171 NONAME
	_ZN20CTestBlockController20doTestStepPostambleLEv @ 172 NONAME
	_ZN20CTestBlockController21CBlockActiveSchedulerC1ERS_ @ 173 NONAME
	_ZN20CTestBlockController21CBlockActiveSchedulerC2ERS_ @ 174 NONAME
	_ZN20CTestBlockController21CBlockActiveSchedulerD0Ev @ 175 NONAME
	_ZN20CTestBlockController21CBlockActiveSchedulerD1Ev @ 176 NONAME
	_ZN20CTestBlockController21CBlockActiveSchedulerD2Ev @ 177 NONAME
	_ZN20CTestBlockController8SetErrorEi @ 178 NONAME
	_ZN20CTestBlockControllerC2Ev @ 179 NONAME
	_ZN20CTestBlockControllerD0Ev @ 180 NONAME
	_ZN20CTestBlockControllerD1Ev @ 181 NONAME
	_ZN20CTestBlockControllerD2Ev @ 182 NONAME
	_ZN9CTEFTimer4NewLER17MTEFTimerCallbacki @ 183 NONAME
	_ZNK20CTestBlockController21CBlockActiveScheduler5ErrorEi @ 184 NONAME
	_ZTI12CDataWrapper @ 185 NONAME
	_ZTI12CTestServer2 @ 186 NONAME
	_ZTI13CBlockControl @ 187 NONAME
	_ZTI15CActiveCallback @ 188 NONAME
	_ZTI15CDataDictionary @ 189 NONAME
	_ZTI17CBlockControlBase @ 190 NONAME
	_ZTI17CCommandProcessor @ 191 NONAME
	_ZTI20CTestBlockController @ 192 NONAME
	_ZTI23CPersistentBlockControl @ 193 NONAME
	_ZTI9CTEFTimer @ 194 NONAME
	_ZTIN20CTestBlockController21CBlockActiveSchedulerE @ 195 NONAME
	_ZTV12CDataWrapper @ 196 NONAME
	_ZTV12CTestServer2 @ 197 NONAME
	_ZTV13CBlockControl @ 198 NONAME
	_ZTV15CActiveCallback @ 199 NONAME
	_ZTV15CDataDictionary @ 200 NONAME
	_ZTV17CBlockControlBase @ 201 NONAME
	_ZTV17CCommandProcessor @ 202 NONAME
	_ZTV20CTestBlockController @ 203 NONAME
	_ZTV23CPersistentBlockControl @ 204 NONAME
	_ZTV9CTEFTimer @ 205 NONAME
	_ZTVN20CTestBlockController21CBlockActiveSchedulerE @ 206 NONAME
	_ZThn728_N20CTestBlockController11BlockResultEv @ 207 NONAME ABSENT
	_ZThn728_N20CTestBlockController13SetAsyncErrorEii @ 208 NONAME ABSENT
	_ZThn728_N20CTestBlockController14SetBlockResultE8TVerdict @ 209 NONAME ABSENT
	_ZThn728_N20CTestBlockController8SetErrorEi @ 210 NONAME ABSENT
	_ZThn732_N20CTestBlockController14TimerCompletedEv @ 211 NONAME ABSENT
	_ZThn736_N20CTestBlockController12NextCommandLEv @ 212 NONAME ABSENT
	_ZThn12_N12CDataWrapper11BlockResultEv @ 213 NONAME
	_ZThn12_N12CDataWrapper13SetAsyncErrorEii @ 214 NONAME
	_ZThn12_N12CDataWrapper14SetBlockResultE8TVerdict @ 215 NONAME
	_ZThn12_N12CDataWrapper8SetErrorEi @ 216 NONAME
	_ZThn4_N12CDataWrapper4RunLEP7CActivei @ 217 NONAME
	_ZThn4_N12CDataWrapper8DoCancelEP7CActivei @ 218 NONAME
	_ZThn752_N12CTestServer213PutAndDisownLERK7TDesC16PvPFvS3_E @ 219 NONAME ABSENT
	_ZThn752_N12CTestServer216GetObjectAndOwnLERK7TDesC16 @ 220 NONAME ABSENT
	_ZThn752_N12CTestServer222CreateActiveSchedulerLEv @ 221 NONAME ABSENT
	_ZThn752_N12CTestServer222DeleteActiveSchedulerLEv @ 222 NONAME ABSENT
	_ZThn8_N12CDataWrapper14GetDataObjectLERK7TDesC16 @ 223 NONAME
	_ZThn8_N12CDataWrapper14SetDataObjectLERK7TDesC16Pv @ 224 NONAME
	_ZThn8_N12CDataWrapper15GetDataWrapperLERK7TDesC16 @ 225 NONAME
	_ZThn8_N12CDataWrapper15ReadSharedDataLERK7TDesC16R6TDes16 @ 226 NONAME
	_ZThn8_N12CDataWrapper16GetHexFromConfigERK7TDesC16S2_Ri @ 227 NONAME
	_ZThn8_N12CDataWrapper16GetIntFromConfigERK7TDesC16S2_Ri @ 228 NONAME
	_ZThn8_N12CDataWrapper16WriteHexToConfigERK7TDesC16S2_RKi @ 229 NONAME
	_ZThn8_N12CDataWrapper16WriteIntToConfigERK7TDesC16S2_RKi @ 230 NONAME
	_ZThn8_N12CDataWrapper16WriteSharedDataLERK7TDesC16RS0_9TModeCopy @ 231 NONAME
	_ZThn8_N12CDataWrapper17GetBoolFromConfigERK7TDesC16S2_Ri @ 232 NONAME
	_ZThn8_N12CDataWrapper17WriteBoolToConfigERK7TDesC16S2_RKi @ 233 NONAME
	_ZThn8_N12CDataWrapper19GetStringFromConfigERK7TDesC16S2_R7TPtrC16 @ 234 NONAME
	_ZThn8_N12CDataWrapper19WriteStringToConfigERK7TDesC16S2_RK7TPtrC16 @ 235 NONAME
	_ZThn8_N12CDataWrapper6LoggerEv @ 236 NONAME
	_ZN18CTestExecuteLogger4NewLE14TLoggerOptions @ 237 NONAME
	_ZN18CTestExecuteLogger5NewLCE14TLoggerOptions @ 238 NONAME
	_ZN18CTestExecuteLogger16SetLoggerChannelEi @ 239 NONAME
	_ZN18CTestExecuteLogger11SetPipeNameER7TPtrC16 @ 240 NONAME
	_ZThn772_N12CTestServer213PutAndDisownLERK7TDesC16PvPFvS3_E @ 241 NONAME ABSENT ; #<thunk>#
	_ZThn772_N12CTestServer216GetObjectAndOwnLERK7TDesC16 @ 242 NONAME ABSENT ; #<thunk>#
	_ZThn772_N12CTestServer222CreateActiveSchedulerLEv @ 243 NONAME ABSENT ; #<thunk>#
	_ZThn772_N12CTestServer222DeleteActiveSchedulerLEv @ 244 NONAME ABSENT ; #<thunk>#
	_ZN19CTestExecuteIniData4NewLER4TBufILi2EE @ 245 NONAME
	_ZN19CTestExecuteIniData5NewLCER4TBufILi2EE @ 246 NONAME
	_ZN19CTestExecuteIniDataC1ER4TBufILi2EE @ 247 NONAME
	_ZN19CTestExecuteIniDataC2ER4TBufILi2EE @ 248 NONAME
	_ZThn3184_N20CTestBlockController11BlockResultEv @ 249 NONAME ; #<thunk>#
	_ZThn3184_N20CTestBlockController13SetAsyncErrorEii @ 250 NONAME ; #<thunk>#
	_ZThn3184_N20CTestBlockController14SetBlockResultE8TVerdict @ 251 NONAME ; #<thunk>#
	_ZThn3184_N20CTestBlockController8SetErrorEi @ 252 NONAME ; #<thunk>#
	_ZThn3188_N20CTestBlockController14TimerCompletedEv @ 253 NONAME ; #<thunk>#
	_ZThn3192_N20CTestBlockController12NextCommandLEv @ 254 NONAME ; #<thunk>#
	_ZThn1280_N12CTestServer213PutAndDisownLERK7TDesC16PvPFvS3_E @ 255 NONAME
	_ZThn1280_N12CTestServer216GetObjectAndOwnLERK7TDesC16 @ 256 NONAME
	_ZThn1280_N12CTestServer222CreateActiveSchedulerLEv @ 257 NONAME
	_ZThn1280_N12CTestServer222DeleteActiveSchedulerLEv @ 258 NONAME
	_ZN9CTestStep16GetIntFromConfigERK7TDesC16S2_Rx @ 259 NONAME
	_ZN9CTestStep16WriteIntToConfigERK7TDesC16S2_RKx @ 260 NONAME
	_ZN8TEFUtils16WrapperPluginNewER8RLibrary @ 261 NONAME

