EXPORTS
	_ZN16CSymbianKeyStore10GetKeySizeEv @ 1 NONAME
	_ZN16CSymbianKeyStore10RSAVerifyLEPKhjS1_j @ 2 NONAME
	_ZN16CSymbianKeyStore12CreateRSAKeyEjRK6TDesC8 @ 3 NONAME
	_ZN16CSymbianKeyStore13GetSignedDataEPj @ 4 NONAME
	_ZN16CSymbianKeyStore15GetKeyAlgorithmEv @ 5 NONAME
	_ZN16CSymbianKeyStore15GetVerifyResultEv @ 6 NONAME
	_ZN16CSymbianKeyStore22CreateUnifiedKeyStoreLEv @ 7 NONAME
	_ZN16CSymbianKeyStore23RSAVerifyWithPublicKeyLEPKhjS1_jP21CSubjectPublicKeyInfo @ 8 NONAME
	_ZN16CSymbianKeyStore4NewLEv @ 9 NONAME
	_ZN16CSymbianKeyStore5NewLCEv @ 10 NONAME
	_ZN16CSymbianKeyStore6hasKeyEv @ 11 NONAME
	_ZN16CSymbianKeyStore7FindKeyERK6TDesC8N12CKeyInfoBase13EKeyAlgorithmE @ 12 NONAME
	_ZN16CSymbianKeyStore8GetErrorEv @ 13 NONAME
	_ZN16CSymbianKeyStore8RSASignLEPKhj @ 14 NONAME
	_ZN16CSymbianKeyStore9ImportKeyERK6TDesC8S2_ @ 15 NONAME
	_ZN17CSymbianCertChain11InitializeLEPhjRK13RPointerArrayI16CX509CertificateE @ 16 NONAME
	_ZN17CSymbianCertChain17GetValidateResultEv @ 17 NONAME
	_ZN17CSymbianCertChain4NewLEv @ 18 NONAME
	_ZN17CSymbianCertChain8GetErrorEv @ 19 NONAME
	_ZN17CSymbianCertChain9ValidateLEv @ 20 NONAME
	_ZN17CSymbianCertChainD0Ev @ 21 NONAME
	_ZN17CSymbianCertChainD1Ev @ 22 NONAME
	_ZN17CSymbianCertChainD2Ev @ 23 NONAME
	_ZN17CSymbianCertStore11GetCertListEv @ 24 NONAME
	_ZN17CSymbianCertStore11GetCertSizeEv @ 25 NONAME
	_ZN17CSymbianCertStore17RetrieveCertDataLEv @ 26 NONAME
	_ZN17CSymbianCertStore19GetRetrieveCertDataEv @ 27 NONAME
	_ZN17CSymbianCertStore19RetrieveCertObjectLEv @ 28 NONAME
	_ZN17CSymbianCertStore21GetRetrieveCertObjectEv @ 29 NONAME
	_ZN17CSymbianCertStore23CreateUnifiedCertStoreLEv @ 30 NONAME
	_ZN17CSymbianCertStore4NewLEv @ 31 NONAME
	_ZN17CSymbianCertStore5NewLCEv @ 32 NONAME
	_ZN17CSymbianCertStore7AddCertERK6TDesC8S2_ @ 33 NONAME
	_ZN17CSymbianCertStore7SetCertEP11CCTCertInfo @ 34 NONAME
	_ZN17CSymbianCertStore7hasCertEv @ 35 NONAME
	_ZN17CSymbianCertStore8GetErrorEv @ 36 NONAME
	_ZN17CSymbianCertStore9FindCertLERK6TDesC8 @ 37 NONAME
	_ZN17CSymbianCertStore9ListCertLEv @ 38 NONAME
	_ZTI16CSymbianKeyStore @ 39 NONAME DATA 12 ; #<TI>#
	_ZTI17CSymbianCertChain @ 40 NONAME DATA 12 ; #<TI>#
	_ZTI17CSymbianCertStore @ 41 NONAME DATA 12 ; #<TI>#
	_ZTV16CSymbianKeyStore @ 42 NONAME DATA 32 ; #<VT>#
	_ZTV17CSymbianCertChain @ 43 NONAME DATA 32 ; #<VT>#
	_ZTV17CSymbianCertStore @ 44 NONAME DATA 32 ; #<VT>#

