EXPORTS
	_ZN11TXmlEngAttr14SetValueNoEncLERK6TDesC8 @ 1 NONAME
	_ZN11TXmlEngAttr16SetEscapedValueLERK6TDesC8 @ 2 NONAME
	_ZN11TXmlEngAttr9SetValueLERK6TDesC8 @ 3 NONAME
	_ZN11TXmlEngNode11AddUserDataEP15MXmlEngUserData @ 4 NONAME
	_ZN11TXmlEngNode11ReplaceWithES_ @ 5 NONAME
	_ZN11TXmlEngNode12AppendChildLES_ @ 6 NONAME
	_ZN11TXmlEngNode14RemoveUserDataEv @ 7 NONAME
	_ZN11TXmlEngNode14SubstituteForLES_ @ 8 NONAME
	_ZN11TXmlEngNode16MoveAfterSiblingES_ @ 9 NONAME
	_ZN11TXmlEngNode16SetAsLastSiblingEv @ 10 NONAME
	_ZN11TXmlEngNode17MoveBeforeSiblingES_ @ 11 NONAME
	_ZN11TXmlEngNode17SetAsFirstSiblingEv @ 12 NONAME
	_ZN11TXmlEngNode20ReconcileNamespacesLEv @ 13 NONAME
	_ZN11TXmlEngNode6RemoveEv @ 14 NONAME
	_ZN11TXmlEngNode6UnlinkEv @ 15 NONAME
	_ZN11TXmlEngNode9InnerXmlLER5RBuf8 @ 16 NONAME
	_ZN11TXmlEngNode9OuterXmlLER5RBuf8 @ 17 NONAME
	_ZN11TXmlEngNode9SetValueLERK6TDesC8 @ 18 NONAME
	_ZN14RXmlEngNodeSet11InitializeLEv @ 19 NONAME
	_ZN14RXmlEngNodeSet4FreeEv @ 20 NONAME
	_ZN14RXmlEngNodeSetC1Ev @ 21 NONAME
	_ZN14RXmlEngNodeSetC2Ev @ 22 NONAME
	_ZN14TXmlEngElement13CopyChildrenLES_ @ 23 NONAME
	_ZN14TXmlEngElement13SetAttributeLERK6TDesC8S2_S2_S2_ @ 24 NONAME
	_ZN14TXmlEngElement13SetTextNoEncLERK6TDesC8 @ 25 NONAME
	_ZN14TXmlEngElement14AddNewElementLERK6TDesC8 @ 26 NONAME
	_ZN14TXmlEngElement14AddNewElementLERK6TDesC816TXmlEngNamespace @ 27 NONAME
	_ZN14TXmlEngElement14AddNewElementLERK6TDesC8S2_S2_ @ 28 NONAME
	_ZN14TXmlEngElement14RemoveChildrenEv @ 29 NONAME
	_ZN14TXmlEngElement15CopyAttributesLES_ @ 30 NONAME
	_ZN14TXmlEngElement15SetEscapedTextLERK6TDesC8 @ 31 NONAME
	_ZN14TXmlEngElement16AddNewAttributeLERK6TDesC8S2_ @ 32 NONAME
	_ZN14TXmlEngElement16AddNewAttributeLERK6TDesC8S2_16TXmlEngNamespace @ 33 NONAME
	_ZN14TXmlEngElement16AddNewAttributeLERK6TDesC8S2_S2_S2_ @ 34 NONAME
	_ZN14TXmlEngElement16AppendTextNoEncLERK6TDesC8 @ 35 NONAME
	_ZN14TXmlEngElement16RemoveAttributeLERK6TDesC8S2_ @ 36 NONAME
	_ZN14TXmlEngElement16RemoveAttributesEv @ 37 NONAME
	_ZN14TXmlEngElement17SetAttributeNodeLE11TXmlEngAttr @ 38 NONAME
	_ZN14TXmlEngElement19FindOrCreateNsDeclLERK6TDesC8 @ 39 NONAME
	_ZN14TXmlEngElement19FindOrCreateNsDeclLERK6TDesC8S2_ @ 40 NONAME
	_ZN14TXmlEngElement20AddNewElementSameNsLERK6TDesC8 @ 41 NONAME
	_ZN14TXmlEngElement20AddNewElementWithNsLERK6TDesC8S2_ @ 42 NONAME
	_ZN14TXmlEngElement20RemoveChildElementsLERK6TDesC8S2_ @ 43 NONAME
	_ZN14TXmlEngElement20SetDefaultNamespaceLERK6TDesC8 @ 44 NONAME
	_ZN14TXmlEngElement22AddNewAttributeWithNsLERK6TDesC8S2_S2_ @ 45 NONAME
	_ZN14TXmlEngElement22SetNoDefaultNamespaceLEv @ 46 NONAME
	_ZN14TXmlEngElement23AddNewElementUsePrefixLERK6TDesC8S2_ @ 47 NONAME
	_ZN14TXmlEngElement24AddNamespaceDeclarationLERK6TDesC8S2_ @ 48 NONAME
	_ZN14TXmlEngElement24AddNewElementAutoPrefixLERK6TDesC8S2_S_ @ 49 NONAME
	_ZN14TXmlEngElement25AddNewAttributeUsePrefixLERK6TDesC8S2_S2_ @ 50 NONAME
	_ZN14TXmlEngElement27RemoveNamespaceDeclarationsEv @ 51 NONAME
	_ZN14TXmlEngElement8AddTextLERK6TDesC8 @ 52 NONAME
	_ZN14TXmlEngElement8SetTextLERK6TDesC8 @ 53 NONAME
	_ZN14TXmlEngElement9AddXmlIdLERK6TDesC8S2_16TXmlEngNamespace @ 54 NONAME
	_ZN15RXmlEngDocument10AdoptNodeLE11TXmlEngNode @ 55 NONAME
	_ZN15RXmlEngDocument13SetStandaloneEi @ 56 NONAME
	_ZN15RXmlEngDocument14CreateCommentLERK6TDesC8 @ 57 NONAME
	_ZN15RXmlEngDocument14CreateElementLERK6TDesC8S2_S2_ @ 58 NONAME
	_ZN15RXmlEngDocument14RegisterXmlIdLE14TXmlEngElementRK6TDesC8S3_ @ 59 NONAME
	_ZN15RXmlEngDocument14RegisterXmlIdLERK6TDesC8S2_ @ 60 NONAME
	_ZN15RXmlEngDocument14SetXmlVersionLERK6TDesC8 @ 61 NONAME
	_ZN15RXmlEngDocument15CreateTextNodeLERK6TDesC8 @ 62 NONAME
	_ZN15RXmlEngDocument15SetDocumentUriLERK6TDesC8 @ 63 NONAME
	_ZN15RXmlEngDocument16CreateAttributeLERK6TDesC8S2_ @ 64 NONAME
	_ZN15RXmlEngDocument18SetDocumentElementE14TXmlEngElement @ 65 NONAME
	_ZN15RXmlEngDocument19CreateCDATASectionLERK6TDesC8 @ 66 NONAME
	_ZN15RXmlEngDocument20CreateFileContainerLERK6TDesC8RK5RFile @ 67 NONAME
	_ZN15RXmlEngDocument20GetDataContainerListER6RArrayI20TXmlEngDataContainerE @ 68 NONAME
	_ZN15RXmlEngDocument21CreateChunkContainerLERK6TDesC8RK6RChunkii @ 69 NONAME
	_ZN15RXmlEngDocument22CreateBinaryContainerLERK6TDesC8S2_ @ 70 NONAME
	_ZN15RXmlEngDocument22CreateDocumentElementLERK6TDesC8S2_S2_ @ 71 NONAME
	_ZN15RXmlEngDocument22CreateEntityReferenceLERK6TDesC8 @ 72 NONAME
	_ZN15RXmlEngDocument28CreateProcessingInstructionLERK6TDesC8S2_ @ 73 NONAME
	_ZN15RXmlEngDocument5CloseEv @ 74 NONAME
	_ZN15RXmlEngDocument5OpenLER24RXmlEngDOMImplementation @ 75 NONAME
	_ZN15RXmlEngDocument5OpenLER24RXmlEngDOMImplementation14TXmlEngElement @ 76 NONAME
	_ZN15RXmlEngDocument5OpenLER24RXmlEngDOMImplementationPv @ 77 NONAME
	_ZN15RXmlEngDocumentC1Ev @ 78 NONAME
	_ZN15RXmlEngDocumentC2Ev @ 79 NONAME
	_ZN16RXmlEngDOMParser10ParseFileLER3RFsRK7TDesC16j @ 80 NONAME
	_ZN16RXmlEngDOMParser10ParseFileLERK7TDesC16j @ 81 NONAME
	_ZN16RXmlEngDOMParser11ParseChunkLERK6TDesC8 @ 82 NONAME
	_ZN16RXmlEngDOMParser19GetLastParsingErrorEv @ 83 NONAME
	_ZN16RXmlEngDOMParser4OpenER24RXmlEngDOMImplementation @ 84 NONAME
	_ZN16RXmlEngDOMParser5CloseEv @ 85 NONAME
	_ZN16RXmlEngDOMParser6ParseLERK6TDesC8 @ 86 NONAME
	_ZN16RXmlEngDOMParser7FinishLEv @ 87 NONAME
	_ZN16RXmlEngDOMParserC1Ev @ 88 NONAME
	_ZN16RXmlEngDOMParserC2Ev @ 89 NONAME
	_ZN18RXmlEngXPathResult4FreeEv @ 90 NONAME
	_ZN18RXmlEngXPathResultC1Ev @ 91 NONAME
	_ZN18RXmlEngXPathResultC2Ev @ 92 NONAME
	_ZN18TXmlEngXPathObject10ToBooleanLERK6TDesC8 @ 93 NONAME ABSENT
	_ZN18TXmlEngXPathObject9ToBooleanERK11TXmlEngNode @ 94 NONAME ABSENT
	_ZN18TXmlEngXPathObject9ToBooleanERK14RXmlEngNodeSet @ 95 NONAME ABSENT
	_ZN18TXmlEngXPathObject9ToBooleanERK6TDesC8 @ 96 NONAME ABSENT
	_ZN18TXmlEngXPathObject9ToBooleanEd @ 97 NONAME ABSENT
	_ZN18TXmlEngXPathObject9ToNumberLERK11TXmlEngNode @ 98 NONAME ABSENT
	_ZN18TXmlEngXPathObject9ToNumberLERK14RXmlEngNodeSet @ 99 NONAME ABSENT
	_ZN18TXmlEngXPathObject9ToNumberLERK6TDesC8 @ 100 NONAME ABSENT
	_ZN18TXmlEngXPathObject9ToNumberLEi @ 101 NONAME ABSENT
	_ZN18TXmlEngXPathObject9ToStringLERK11TXmlEngNodeR5RBuf8 @ 102 NONAME ABSENT
	_ZN18TXmlEngXPathObject9ToStringLERK14RXmlEngNodeSetR5RBuf8 @ 103 NONAME ABSENT
	_ZN18TXmlEngXPathObject9ToStringLEdR5RBuf8 @ 104 NONAME ABSENT
	_ZN18TXmlEngXPathObject9ToStringLEiR5RBuf8 @ 105 NONAME ABSENT
	_ZN19RXmlEngNodeListImpl4NextEv @ 106 NONAME
	_ZN19RXmlEngNodeListImpl5CloseEv @ 107 NONAME
	_ZN19RXmlEngNodeListImplC1Ev @ 108 NONAME
	_ZN19RXmlEngNodeListImplC2Ev @ 109 NONAME
	_ZN20TXmlEngCharacterData12SetContentsLERK6TDesC8 @ 110 NONAME
	_ZN20TXmlEngCharacterData15AppendContentsLERK6TDesC8 @ 111 NONAME
	_ZN21TXmlEngXPathEvaluator11InstanceMapEv @ 112 NONAME
	_ZN21TXmlEngXPathEvaluator14SetInstanceMapEP24CXmlEngXFormsInstanceMap @ 113 NONAME
	_ZN21TXmlEngXPathEvaluator17CreateExpressionLERK6TDesC8PK24MXmlEngNamespaceResolver @ 114 NONAME
	_ZN21TXmlEngXPathEvaluator25EvaluateWithDependenciesLERK6TDesC811TXmlEngNodePK24MXmlEngNamespaceResolverR14RXmlEngNodeSet @ 115 NONAME
	_ZN21TXmlEngXPathEvaluator9EvaluateLERK6TDesC811TXmlEngNodePK24MXmlEngNamespaceResolver @ 116 NONAME
	_ZN21TXmlEngXPathEvaluatorC1Ev @ 117 NONAME
	_ZN21TXmlEngXPathEvaluatorC2Ev @ 118 NONAME
	_ZN22RXmlEngXPathExpression18SetExtendedContextEPv @ 119 NONAME
	_ZN22RXmlEngXPathExpression7DestroyEv @ 120 NONAME
	_ZN22RXmlEngXPathExpressionC1Ev @ 121 NONAME
	_ZN22RXmlEngXPathExpressionC2Ev @ 122 NONAME
	_ZN22TXmlEngBinaryContainer12SetContentsLERK6TDesC8 @ 123 NONAME
	_ZN22TXmlEngBinaryContainer15AppendContentsLERK6TDesC8 @ 124 NONAME
	_ZN24CXmlEngXFormsInstanceMap12RemoveEntryLERK6TDesC8 @ 125 NONAME
	_ZN24CXmlEngXFormsInstanceMap4NewLEv @ 126 NONAME
	_ZN24CXmlEngXFormsInstanceMap5NewLCEv @ 127 NONAME
	_ZN24CXmlEngXFormsInstanceMap9AddEntryLER15RXmlEngDocumentRK6TDesC8 @ 128 NONAME
	_ZN24CXmlEngXFormsInstanceMapD0Ev @ 129 NONAME
	_ZN24CXmlEngXFormsInstanceMapD1Ev @ 130 NONAME
	_ZN24CXmlEngXFormsInstanceMapD2Ev @ 131 NONAME
	_ZN24RXmlEngDOMImplementation5CloseEi @ 132 NONAME
	_ZN24RXmlEngDOMImplementation5OpenLEP5RHeap @ 133 NONAME
	_ZN25TXmlEngXPathConfiguration20IsFunctionSupportedLERK6TDesC8S2_ @ 134 NONAME ABSENT
	_ZN25TXmlEngXPathConfiguration21AddExtensionFunctionLERK34TXmlEngExtensionFunctionDescriptor @ 135 NONAME ABSENT
	_ZN25TXmlEngXPathConfiguration12Unused_Func1Ei @ 136 NONAME ABSENT
	_ZN25TXmlEngXPathConfiguration23RemoveExtensionFunctionERK34TXmlEngExtensionFunctionDescriptor @ 137 NONAME ABSENT
	_ZN25TXmlEngXPathConfiguration24ResetExtensionFunctionsLEv @ 138 NONAME ABSENT
	_ZN25TXmlEngXPathConfiguration27AddExtensionFunctionVectorLERK6RArrayI34TXmlEngExtensionFunctionDescriptorEj @ 139 NONAME ABSENT
	_ZN25TXmlEngXPathConfiguration27AddNativeExtensionFunctionLERK34TXmlEngExtensionFunctionDescriptor @ 140 NONAME ABSENT
	_ZN25TXmlEngXPathConfiguration29RemoveExtensionFunctionVectorERK6RArrayI34TXmlEngExtensionFunctionDescriptorEj @ 141 NONAME ABSENT
	_ZN25TXmlEngXPathConfiguration33AddNativeExtensionFunctionVectorLERK6RArrayI34TXmlEngExtensionFunctionDescriptorEj @ 142 NONAME ABSENT
	_ZN27TXmlEngSerializationOptions13SetNodeFilterEP17MXmlEngNodeFilter @ 143 NONAME
	_ZN27TXmlEngSerializationOptionsC1EjRK6TDesC8 @ 144 NONAME
	_ZN27TXmlEngSerializationOptionsC2EjRK6TDesC8 @ 145 NONAME
	_ZN28TXmlEngProcessingInstruction8SetDataLERK6TDesC8 @ 146 NONAME
	_ZN9TDomUtils20XmlEngRenameElementLE14TXmlEngElementRK6TDesC8S3_S3_ @ 147 NONAME
	_ZNK11TXmlEngAttr12OwnerElementEv @ 148 NONAME
	_ZNK11TXmlEngAttr15WholeValueCopyLER5RBuf8 @ 149 NONAME
	_ZNK11TXmlEngAttr4NameEv @ 150 NONAME
	_ZNK11TXmlEngAttr5CopyLEv @ 151 NONAME
	_ZNK11TXmlEngAttr5ValueEv @ 152 NONAME
	_ZNK11TXmlEngNode10FirstChildEv @ 153 NONAME
	_ZNK11TXmlEngNode10ParentNodeEv @ 154 NONAME
	_ZNK11TXmlEngNode11NextSiblingEv @ 155 NONAME
	_ZNK11TXmlEngNode12NamespaceUriEv @ 156 NONAME
	_ZNK11TXmlEngNode13GetChildNodesER15RXmlEngNodeListIS_E @ 157 NONAME
	_ZNK11TXmlEngNode13HasAttributesEv @ 158 NONAME
	_ZNK11TXmlEngNode13HasChildNodesEv @ 159 NONAME
	_ZNK11TXmlEngNode13LookupPrefixLERK6TDesC8 @ 160 NONAME
	_ZNK11TXmlEngNode13OwnerDocumentEv @ 161 NONAME
	_ZNK11TXmlEngNode15PreviousSiblingEv @ 162 NONAME
	_ZNK11TXmlEngNode19IsDefaultNamespaceLERK6TDesC8 @ 163 NONAME
	_ZNK11TXmlEngNode19LookupNamespaceUriLERK6TDesC8 @ 164 NONAME
	_ZNK11TXmlEngNode20IsSimpleTextContentsEv @ 165 NONAME
	_ZNK11TXmlEngNode20NamespaceDeclarationEv @ 166 NONAME
	_ZNK11TXmlEngNode22WholeTextContentsCopyLER5RBuf8 @ 167 NONAME
	_ZNK11TXmlEngNode4NameEv @ 168 NONAME
	_ZNK11TXmlEngNode5CopyLEv @ 169 NONAME
	_ZNK11TXmlEngNode5ValueEv @ 170 NONAME
	_ZNK11TXmlEngNode6PrefixEv @ 171 NONAME
	_ZNK11TXmlEngNode7CopyToLES_ @ 172 NONAME
	_ZNK11TXmlEngNode8BaseUriLER5RBuf8 @ 173 NONAME
	_ZNK11TXmlEngNode8NodeTypeEv @ 174 NONAME
	_ZNK11TXmlEngNode8UserDataEv @ 175 NONAME
	_ZNK11TXmlEngNode9LastChildEv @ 176 NONAME
	_ZNK14RXmlEngNodeSet6LengthEv @ 177 NONAME
	_ZNK14RXmlEngNodeSet8ContainsE11TXmlEngNode @ 178 NONAME
	_ZNK14RXmlEngNodeSetixEi @ 179 NONAME
	_ZNK14TXmlEngElement13GetAttributesER15RXmlEngNodeListI11TXmlEngAttrE @ 180 NONAME
	_ZNK14TXmlEngElement14AttributeNodeLERK6TDesC8S2_ @ 181 NONAME
	_ZNK14TXmlEngElement15AttributeValueLERK6TDesC8S2_ @ 182 NONAME
	_ZNK14TXmlEngElement16GetChildElementsER15RXmlEngNodeListIS_E @ 183 NONAME
	_ZNK14TXmlEngElement16TheXMLNamespaceLEv @ 184 NONAME
	_ZNK14TXmlEngElement21GetElementsByTagNameLER15RXmlEngNodeListIS_ERK6TDesC8S5_ @ 185 NONAME
	_ZNK14TXmlEngElement21LookupNamespaceByUriLERK6TDesC8 @ 186 NONAME
	_ZNK14TXmlEngElement22ElementCopyNoChildrenLEi @ 187 NONAME
	_ZNK14TXmlEngElement24LookupNamespaceByPrefixLERK6TDesC8 @ 188 NONAME
	_ZNK14TXmlEngElement26HasNsDeclarationForPrefixLERK6TDesC8 @ 189 NONAME
	_ZNK14TXmlEngElement4TextEv @ 190 NONAME
	_ZNK15RXmlEngDocument10XmlVersionEv @ 191 NONAME
	_ZNK15RXmlEngDocument11DocumentUriEv @ 192 NONAME
	_ZNK15RXmlEngDocument11XmlEncodingEv @ 193 NONAME
	_ZNK15RXmlEngDocument12IsStandaloneEv @ 194 NONAME
	_ZNK15RXmlEngDocument14CloneDocumentLEv @ 195 NONAME
	_ZNK15RXmlEngDocument14ImplementationEv @ 196 NONAME
	_ZNK15RXmlEngDocument15DocumentElementEv @ 197 NONAME
	_ZNK15RXmlEngDocument19FindElementByXmlIdLERK6TDesC8 @ 198 NONAME
	_ZNK15RXmlEngDocument5SaveLER19MXmlEngOutputStream11TXmlEngNodeRK27TXmlEngSerializationOptions @ 199 NONAME
	_ZNK15RXmlEngDocument5SaveLER3RFsRK7TDesC1611TXmlEngNodeRK27TXmlEngSerializationOptions @ 200 NONAME
	_ZNK15RXmlEngDocument5SaveLER5RBuf811TXmlEngNodeRK27TXmlEngSerializationOptions @ 201 NONAME
	_ZNK15RXmlEngDocument5SaveLERK7TDesC1611TXmlEngNodeRK27TXmlEngSerializationOptions @ 202 NONAME
	_ZNK15TXmlEngTextNode26IsElementContentWhitespaceEv @ 203 NONAME
	_ZNK16TXmlEngNamespace11IsUndefinedEv @ 204 NONAME
	_ZNK16TXmlEngNamespace3UriEv @ 205 NONAME
	_ZNK16TXmlEngNamespace6PrefixEv @ 206 NONAME
	_ZNK16TXmlEngNamespace9IsDefaultEv @ 207 NONAME
	_ZNK18RXmlEngXPathResult4TypeEv @ 208 NONAME
	_ZNK18RXmlEngXPathResult8AsNumberEv @ 209 NONAME
	_ZNK18RXmlEngXPathResult9AsBooleanEv @ 210 NONAME
	_ZNK18RXmlEngXPathResult9AsNodeSetEv @ 211 NONAME
	_ZNK18RXmlEngXPathResult9AsStringLER5RBuf8 @ 212 NONAME
	_ZNK19RXmlEngNodeListImpl5CountEv @ 213 NONAME
	_ZNK19RXmlEngNodeListImpl7HasNextEv @ 214 NONAME
	_ZNK20TXmlEngCharacterData6LengthEv @ 215 NONAME
	_ZNK20TXmlEngCharacterData8ContentsEv @ 216 NONAME
	_ZNK20TXmlEngDataContainer3CidEv @ 217 NONAME
	_ZNK20TXmlEngDataContainer4SizeEv @ 218 NONAME
	_ZNK20TXmlEngFileContainer4FileEv @ 219 NONAME
	_ZNK21TXmlEngChunkContainer11ChunkOffsetEv @ 220 NONAME
	_ZNK21TXmlEngChunkContainer5ChunkEv @ 221 NONAME
	_ZNK22RXmlEngXPathExpression15ExtendedContextEv @ 222 NONAME
	_ZNK22RXmlEngXPathExpression25EvaluateWithDependenciesLE11TXmlEngNodeR14RXmlEngNodeSetPK24MXmlEngNamespaceResolver @ 223 NONAME
	_ZNK22RXmlEngXPathExpression9EvaluateLE11TXmlEngNodePK24MXmlEngNamespaceResolver @ 224 NONAME
	_ZNK22TXmlEngBinaryContainer8ContentsEv @ 225 NONAME
	_ZNK28TXmlEngProcessingInstruction4DataEv @ 226 NONAME
	_ZNK28TXmlEngProcessingInstruction6TargetEv @ 227 NONAME
	_ZTI23TXmlEngFileOutputStream @ 228 NONAME ; #<TI>#
	_ZTI24CXmlEngXFormsInstanceMap @ 229 NONAME ; #<TI>#
	_ZTI26CXmlEngOwnedNodesContainer @ 230 NONAME ; #<TI>#
	_ZTI33TXmlEngXPathEvaluationContextImpl @ 231 NONAME ; #<TI>#
	_ZTV23TXmlEngFileOutputStream @ 232 NONAME ; #<VT>#
	_ZTV24CXmlEngXFormsInstanceMap @ 233 NONAME ; #<VT>#
	_ZTV26CXmlEngOwnedNodesContainer @ 234 NONAME ; #<VT>#
	_ZTV33TXmlEngXPathEvaluationContextImpl @ 235 NONAME ; #<VT>#
	_ZN11TXmlEngNode12ReplaceWithLES_ @ 236 NONAME
	_ZN27TXmlEngSerializationOptions17SetDataSerializerEP21MXmlEngDataSerializer @ 237 NONAME
	_ZN15RXmlEngDocument23CreateDocumentFragmentLEv @ 238 NONAME
	_ZN16XmlEngXPathUtils10ToBooleanLERK6TDesC8 @ 239 NONAME
	_ZN16XmlEngXPathUtils9ToBooleanERK11TXmlEngNode @ 240 NONAME
	_ZN16XmlEngXPathUtils9ToBooleanERK14RXmlEngNodeSet @ 241 NONAME
	_ZN16XmlEngXPathUtils9ToBooleanERK6TDesC8 @ 242 NONAME
	_ZN16XmlEngXPathUtils9ToBooleanEd @ 243 NONAME
	_ZN16XmlEngXPathUtils9ToNumberLERK11TXmlEngNode @ 244 NONAME
	_ZN16XmlEngXPathUtils9ToNumberLERK14RXmlEngNodeSet @ 245 NONAME
	_ZN16XmlEngXPathUtils9ToNumberLERK6TDesC8 @ 246 NONAME
	_ZN16XmlEngXPathUtils9ToNumberLEi @ 247 NONAME
	_ZN16XmlEngXPathUtils9ToStringLERK11TXmlEngNodeR5RBuf8 @ 248 NONAME
	_ZN16XmlEngXPathUtils9ToStringLERK14RXmlEngNodeSetR5RBuf8 @ 249 NONAME
	_ZN16XmlEngXPathUtils9ToStringLEdR5RBuf8 @ 250 NONAME
	_ZN16XmlEngXPathUtils9ToStringLEiR5RBuf8 @ 251 NONAME
	_ZN34TXmlEngExtensionFunctionDescriptorC1Ev @ 252 NONAME
	_ZN34TXmlEngExtensionFunctionDescriptorC2Ev @ 253 NONAME
	_ZN24XmlEngXPathConfiguration12Unused_Func1Ei @ 254 NONAME
	_ZN24XmlEngXPathConfiguration20IsFunctionSupportedLERK6TDesC8S2_ @ 255 NONAME
	_ZN24XmlEngXPathConfiguration21AddExtensionFunctionLERK34TXmlEngExtensionFunctionDescriptor @ 256 NONAME
	_ZN24XmlEngXPathConfiguration23RemoveExtensionFunctionERK34TXmlEngExtensionFunctionDescriptor @ 257 NONAME
	_ZN24XmlEngXPathConfiguration24ResetExtensionFunctionsLEv @ 258 NONAME
	_ZN24XmlEngXPathConfiguration27AddExtensionFunctionVectorLERK6RArrayI34TXmlEngExtensionFunctionDescriptorEj @ 259 NONAME
	_ZN24XmlEngXPathConfiguration27AddNativeExtensionFunctionLERK34TXmlEngExtensionFunctionDescriptor @ 260 NONAME
	_ZN24XmlEngXPathConfiguration29RemoveExtensionFunctionVectorERK6RArrayI34TXmlEngExtensionFunctionDescriptorEj @ 261 NONAME
	_ZN24XmlEngXPathConfiguration33AddNativeExtensionFunctionVectorLERK6RArrayI34TXmlEngExtensionFunctionDescriptorEj @ 262 NONAME
	_ZN14TXmlEngElement14RenameElementLERK6TDesC8S2_S2_ @ 263 NONAME
	_ZN24RXmlEngDOMImplementation5CloseEv @ 264 NONAME

