EXPORTS
	_ZN17CXmlEngSerializer10SerializeLE11TXmlEngNode @ 1 NONAME
	_ZN17CXmlEngSerializer10SerializeLER3RFsRK7TDesC1611TXmlEngNodeRK27TXmlEngSerializationOptions @ 2 NONAME
	_ZN17CXmlEngSerializer10SerializeLER5RBuf811TXmlEngNodeRK27TXmlEngSerializationOptions @ 3 NONAME
	_ZN17CXmlEngSerializer10SerializeLERK7TDesC1611TXmlEngNodeRK27TXmlEngSerializationOptions @ 4 NONAME
	_ZN17CXmlEngSerializer10SetOutputLERK7TDesC16 @ 5 NONAME
    _ZN17CXmlEngSerializer4NewLE21TXmlEngSerializerType @ 6 NONAME	
	_ZN17CXmlEngSerializer23SetSerializationOptionsER27TXmlEngSerializationOptions @ 7 NONAME
	_ZN17CXmlEngSerializer9SetOutputER19MXmlEngOutputStream @ 8 NONAME
	_ZN17CXmlEngSerializer9SetOutputER5RBuf8 @ 9 NONAME
	_ZN19CXmlEngDeserializer12DeserializeLER3RFsRK7TDesC16RK21TXmlEngParsingOptions @ 10 NONAME
	_ZN19CXmlEngDeserializer12DeserializeLERK6TDesC8RK21TXmlEngParsingOptions @ 11 NONAME
	_ZN19CXmlEngDeserializer12DeserializeLERK7TDesC16RK21TXmlEngParsingOptions @ 12 NONAME
	_ZN19CXmlEngDeserializer12DeserializeLEv @ 13 NONAME
	_ZN19CXmlEngDeserializer12ExternalDataEv @ 14 NONAME
	_ZN19CXmlEngDeserializer4NewLERN3Xml15MContentHandlerE23TXmlEngDeserializerType @ 15 NONAME
	_ZN19CXmlEngDeserializer13EnableFeatureEi @ 16 NONAME
	_ZN19CXmlEngDeserializer13SetInputFileLERK7TDesC16 @ 17 NONAME
	_ZN19CXmlEngDeserializer14DisableFeatureEi @ 18 NONAME
	_ZN19CXmlEngDeserializer14ParsingOptionsEv @ 19 NONAME
	_ZN19CXmlEngDeserializer14SetInputBufferERK6TDesC8 @ 20 NONAME
	_ZN19CXmlEngDeserializer16UseExternalDataLER6RArrayI20TXmlEngDataContainerE @ 21 NONAME
	_ZN19CXmlEngDeserializer17SetParsingOptionsER21TXmlEngParsingOptions @ 22 NONAME
	_ZN19CXmlEngDeserializer18SetContentHandlerLERN3Xml15MContentHandlerE @ 23 NONAME
	_ZN20CXmlEngSerializerXOP4NewLEi @ 24 NONAME
	_ZN21TXmlEngParsingOptionsC1Ej @ 25 NONAME
	_ZN21TXmlEngParsingOptionsC2Ej @ 26 NONAME
	_ZN22CXmlEngDeserializerDOM12DeserializeLER3RFsRK7TDesC1623TXmlEngDeserializerType @ 27 NONAME
	_ZN22CXmlEngDeserializerDOM12DeserializeLERK6TDesC823TXmlEngDeserializerType @ 28 NONAME
	_ZN22CXmlEngDeserializerDOM12DeserializeLERK7TDesC1623TXmlEngDeserializerType @ 29 NONAME
	_ZN22CXmlEngDeserializerDOM12DeserializeLEv @ 30 NONAME
	_ZN22CXmlEngDeserializerDOM12ExternalDataEv @ 31 NONAME
	_ZN22CXmlEngDeserializerDOM13SetInputFileLERK7TDesC1623TXmlEngDeserializerType @ 32 NONAME
	_ZN22CXmlEngDeserializerDOM14SetInputBufferERK6TDesC823TXmlEngDeserializerType @ 33 NONAME
	_ZN22CXmlEngDeserializerDOM16UseExternalDataLER6RArrayI20TXmlEngDataContainerE @ 34 NONAME
	_ZN22CXmlEngDeserializerDOM21UseDOMImplementationLER24RXmlEngDOMImplementation @ 35 NONAME
	_ZN22CXmlEngDeserializerDOM4NewLEv @ 36 NONAME
	_ZN22CXmlEngDeserializerXOP13EnableFeatureEi @ 37 NONAME
	_ZN22CXmlEngDeserializerXOP14DisableFeatureEi @ 38 NONAME
	_ZNK19CXmlEngDeserializer16IsFeatureEnabledEi @ 39 NONAME
	_ZNK22CXmlEngDeserializerXOP16IsFeatureEnabledEi @ 40 NONAME
	_ZTI17CXmlEngSerializer @ 41 NONAME ; #<TI>#
	_ZTI19CXmlEngDeserializer @ 42 NONAME ; #<TI>#
	_ZTI20CXmlEngSerializerXOP @ 43 NONAME ; #<TI>#
	_ZTI21CXmlEngContentHandler @ 44 NONAME ; #<TI>#
	_ZTI21CXmlEngSerializerGZIP @ 45 NONAME ; #<TI>#
	_ZTI22CXmlEngDeserializerDOM @ 46 NONAME ; #<TI>#
	_ZTI22CXmlEngDeserializerXOP @ 47 NONAME ; #<TI>#
	_ZTI23CXmlEngDeserializerGZIP @ 48 NONAME ; #<TI>#
	_ZTI23CXmlEngGZIPOutputStream @ 49 NONAME ; #<TI>#
	_ZTI24CXmlEngDOMContentHandler @ 50 NONAME ; #<TI>#
	_ZTI27CXmlEngGZIPFileOutputStream @ 51 NONAME ; #<TI>#
	_ZTI27CXmlEngGZipFileDeserializer @ 52 NONAME ; #<TI>#
	_ZTI27TXmlEngSXOPFileOutputStream @ 53 NONAME ; #<TI>#
	_ZTI28TXmlEngSXOPProxyOutputStream @ 54 NONAME ; #<TI>#
	_ZTI29CXmlEngGZIPBufferOutputStream @ 55 NONAME ; #<TI>#
	_ZTI30CXmlEngGZipBufferDeserializeBM @ 56 NONAME ; #<TI>#
	_ZTV17CXmlEngSerializer @ 57 NONAME ; #<VT>#
	_ZTV19CXmlEngDeserializer @ 58 NONAME ; #<VT>#
	_ZTV20CXmlEngSerializerXOP @ 59 NONAME ; #<VT>#
	_ZTV21CXmlEngContentHandler @ 60 NONAME ; #<VT>#
	_ZTV21CXmlEngSerializerGZIP @ 61 NONAME ; #<VT>#
	_ZTV22CXmlEngDeserializerDOM @ 62 NONAME ; #<VT>#
	_ZTV22CXmlEngDeserializerXOP @ 63 NONAME ; #<VT>#
	_ZTV23CXmlEngDeserializerGZIP @ 64 NONAME ; #<VT>#
	_ZTV23CXmlEngGZIPOutputStream @ 65 NONAME ; #<VT>#
	_ZTV24CXmlEngDOMContentHandler @ 66 NONAME ; #<VT>#
	_ZTV27CXmlEngGZIPFileOutputStream @ 67 NONAME ; #<VT>#
	_ZTV27CXmlEngGZipFileDeserializer @ 68 NONAME ; #<VT>#
	_ZTV27TXmlEngSXOPFileOutputStream @ 69 NONAME ; #<VT>#
	_ZTV28TXmlEngSXOPProxyOutputStream @ 70 NONAME ; #<VT>#
	_ZTV29CXmlEngGZIPBufferOutputStream @ 71 NONAME ; #<VT>#
	_ZTV30CXmlEngGZipBufferDeserializeBM @ 72 NONAME ; #<VT>#

