EXPORTS
	?CreateTestSuiteL@@YAPAVMSymbianUnitTestInterface@@XZ @ 1 NONAME ; class MSymbianUnitTestInterface * CreateTestSuiteL(void)
	?RecordNoLeaveFromStatementL@CSymbianUnitTest@@IAEXABVTDesC8@@H0@Z @ 2 NONAME ; void CSymbianUnitTest::RecordNoLeaveFromStatementL(class TDesC8 const &, int, class TDesC8 const &)
	??0CSymbianUnitTest@@IAE@XZ @ 3 NONAME ; CSymbianUnitTest::CSymbianUnitTest(void)
	?ConstructL@CSymbianUnitTest@@IAEXABVTDesC8@@@Z @ 4 NONAME ; void CSymbianUnitTest::ConstructL(class TDesC8 const &)
	?AddL@CSymbianUnitTestSuite@@QAEXPAVMSymbianUnitTestInterface@@@Z @ 5 NONAME ; void CSymbianUnitTestSuite::AddL(class MSymbianUnitTestInterface *)
	??1CSymbianUnitTest@@UAE@XZ @ 6 NONAME ; CSymbianUnitTest::~CSymbianUnitTest(void)
	?SetupL@CSymbianUnitTest@@UAEXXZ @ 7 NONAME ; void CSymbianUnitTest::SetupL(void)
	?AssertionFailedL@CSymbianUnitTest@@IAEXABVTDesC8@@H0@Z @ 8 NONAME ; void CSymbianUnitTest::AssertionFailedL(class TDesC8 const &, int, class TDesC8 const &)
	?ConstructL@CSymbianUnitTestSuite@@IAEXABVTDesC16@@@Z @ 9 NONAME ; void CSymbianUnitTestSuite::ConstructL(class TDesC16 const &)
	?AssertEqualsL@CSymbianUnitTest@@IAEXHHHABVTDesC8@@@Z @ 10 NONAME ; void CSymbianUnitTest::AssertEqualsL(int, int, int, class TDesC8 const &)
	?AssertEqualsL@CSymbianUnitTest@@IAEXABVTDesC16@@0HABVTDesC8@@@Z @ 11 NONAME ; void CSymbianUnitTest::AssertEqualsL(class TDesC16 const &, class TDesC16 const &, int, class TDesC8 const &)
	?Name@CSymbianUnitTestSuite@@UBEABVTDesC16@@XZ @ 12 NONAME ; class TDesC16 const & CSymbianUnitTestSuite::Name(void) const
	?Teardown@CSymbianUnitTest@@UAEXXZ @ 13 NONAME ; void CSymbianUnitTest::Teardown(void)
	?AssertLeaveL@CSymbianUnitTest@@IAEXABVTDesC8@@HHH0@Z @ 14 NONAME ; void CSymbianUnitTest::AssertLeaveL(class TDesC8 const &, int, int, int, class TDesC8 const &)
	?AssertEqualsL@CSymbianUnitTest@@IAEXABVTDesC8@@0H0@Z @ 15 NONAME ; void CSymbianUnitTest::AssertEqualsL(class TDesC8 const &, class TDesC8 const &, int, class TDesC8 const &)
	?AssertEqualsL@CSymbianUnitTest@@IAEXABVTDesC8@@0H00@Z @ 16 NONAME ; void CSymbianUnitTest::AssertEqualsL(class TDesC8 const &, class TDesC8 const &, int, class TDesC8 const &, class TDesC8 const &)
	??0CSymbianUnitTestSuite@@IAE@XZ @ 17 NONAME ; CSymbianUnitTestSuite::CSymbianUnitTestSuite(void)
	?AssertEqualsL@CSymbianUnitTest@@IAEXABVTDesC16@@0HABVTDesC8@@1@Z @ 18 NONAME ; void CSymbianUnitTest::AssertEqualsL(class TDesC16 const &, class TDesC16 const &, int, class TDesC8 const &, class TDesC8 const &)
	?Name@CSymbianUnitTest@@UBEABVTDesC16@@XZ @ 19 NONAME ; class TDesC16 const & CSymbianUnitTest::Name(void) const
	?ExecuteL@CSymbianUnitTest@@UAEXAAVMSymbianUnitTestObserver@@AAVCSymbianUnitTestResult@@W4TFailureSimulation@MSymbianUnitTestInterface@@ABVCDesC16Array@@H@Z @ 20 NONAME ; void CSymbianUnitTest::ExecuteL(class MSymbianUnitTestObserver &, class CSymbianUnitTestResult &, enum MSymbianUnitTestInterface::TFailureSimulation, class CDesC16Array const &, int)
	?NewL@CSymbianUnitTestSuite@@SAPAV1@ABVTDesC16@@@Z @ 21 NONAME ; class CSymbianUnitTestSuite * CSymbianUnitTestSuite::NewL(class TDesC16 const &)
	??1CSymbianUnitTestSuite@@UAE@XZ @ 22 NONAME ; CSymbianUnitTestSuite::~CSymbianUnitTestSuite(void)
	?NewLC@CSymbianUnitTestSuite@@SAPAV1@ABVTDesC16@@@Z @ 23 NONAME ; class CSymbianUnitTestSuite * CSymbianUnitTestSuite::NewLC(class TDesC16 const &)
	?ExecuteL@CSymbianUnitTestSuite@@UAEXAAVMSymbianUnitTestObserver@@AAVCSymbianUnitTestResult@@W4TFailureSimulation@MSymbianUnitTestInterface@@ABVCDesC16Array@@H@Z @ 24 NONAME ; void CSymbianUnitTestSuite::ExecuteL(class MSymbianUnitTestObserver &, class CSymbianUnitTestResult &, enum MSymbianUnitTestInterface::TFailureSimulation, class CDesC16Array const &, int)
	?IsMemoryAllocationFailureSimulationUsed@CSymbianUnitTest@@IBEHXZ @ 25 NONAME ; int CSymbianUnitTest::IsMemoryAllocationFailureSimulationUsed(void) const
	?TestCaseCount@CSymbianUnitTestSuite@@UAEHXZ @ 26 NONAME ; int CSymbianUnitTestSuite::TestCaseCount(void)
	?AddTestCaseL@CSymbianUnitTest@@IAEXABVTDesC16@@P81@AEXXZ11@Z @ 27 NONAME ; void CSymbianUnitTest::AddTestCaseL(class TDesC16 const &, void (*)(void), void (*)(void), void (*)(void))
	?TestCaseCount@CSymbianUnitTest@@UAEHXZ @ 28 NONAME ; int CSymbianUnitTest::TestCaseCount(void)
	?AssertEqualsL@CSymbianUnitTest@@IAEXHHHABVTDesC8@@0@Z @ 29 NONAME ; void CSymbianUnitTest::AssertEqualsL(int, int, int, class TDesC8 const &, class TDesC8 const &)
	?TestCaseNamesL@CSymbianUnitTestSuite@@UAEXAAVCDesC16Array@@@Z @ 30 NONAME ; void CSymbianUnitTestSuite::TestCaseNamesL(class CDesC16Array &)
	?TestCaseNamesL@CSymbianUnitTest@@UAEXAAVCDesC16Array@@@Z @ 31 NONAME ; void CSymbianUnitTest::TestCaseNamesL(class CDesC16Array &)

