EXPORTS
	??0CLanSettings@@QAE@XZ @ 1 NONAME ; CLanSettings::CLanSettings(void)
	??0CWLanSettings@@QAE@XZ @ 2 NONAME ; CWLanSettings::CWLanSettings(void)
	??1CLanSettings@@UAE@XZ @ 3 NONAME ; CLanSettings::~CLanSettings(void)
	??1CWLanSettings@@UAE@XZ @ 4 NONAME ; CWLanSettings::~CWLanSettings(void)
	?AddWlanTableL@CWLanSettings@@QAEXXZ @ 5 NONAME ; void CWLanSettings::AddWlanTableL(void)
	?Connect@CLanSettings@@QAEHXZ @ 6 NONAME ; int CLanSettings::Connect(void)
	?Connect@CWLanSettings@@QAEHXZ @ 7 NONAME ; int CWLanSettings::Connect(void)
	?DeleteLanSettings@CLanSettings@@QAEHK@Z @ 8 NONAME ; int CLanSettings::DeleteLanSettings(unsigned long)
	?DeleteWlanSettings@CWLanSettings@@QAEHK@Z @ 9 NONAME ; int CWLanSettings::DeleteWlanSettings(unsigned long)
	?DeleteWlanSettingsForService@CWLanSettings@@QAEHK@Z @ 10 NONAME ; int CWLanSettings::DeleteWlanSettingsForService(unsigned long)
	?Disconnect@CLanSettings@@QAEXXZ @ 11 NONAME ; void CLanSettings::Disconnect(void)
	?Disconnect@CWLanSettings@@QAEXXZ @ 12 NONAME ; void CWLanSettings::Disconnect(void)
	?GetEapDataL@CWLanSettings@@QAEXAAV?$RPointerArray@U_TEap@@@@@Z @ 13 NONAME ; void CWLanSettings::GetEapDataL(class RPointerArray<struct _TEap> &)
	?GetFirstSettings@CWLanSettings@@QAEHAAUSWLANSettings@@@Z @ 14 NONAME ; int CWLanSettings::GetFirstSettings(struct SWLANSettings &)
	?GetIAPWlanServicesL@CWLanSettings@@QAEXAAV?$RArray@USWlanIAPId@@@@@Z @ 15 NONAME ; void CWLanSettings::GetIAPWlanServicesL(class RArray<struct SWlanIAPId> &)
	?GetLanSettings@CLanSettings@@QAEHKAAUSLanSettings@@@Z @ 16 NONAME ; int CLanSettings::GetLanSettings(unsigned long, struct SLanSettings &)
	?GetNextSettings@CWLanSettings@@QAEHAAUSWLANSettings@@@Z @ 17 NONAME ; int CWLanSettings::GetNextSettings(struct SWLANSettings &)
	?GetSecondarySsidsForService@CWLanSettings@@QAEHKAAV?$RArray@UTWlanSecondarySsid@@@@@Z @ 18 NONAME ; int CWLanSettings::GetSecondarySsidsForService(unsigned long, class RArray<struct TWlanSecondarySsid> &)
	?GetWlanSettings@CWLanSettings@@QAEHKAAUSWLANSettings@@@Z @ 19 NONAME ; int CWLanSettings::GetWlanSettings(unsigned long, struct SWLANSettings &)
	?GetWlanSettingsForService@CWLanSettings@@QAEHKAAUSWLANSettings@@@Z @ 20 NONAME ; int CWLanSettings::GetWlanSettingsForService(unsigned long, struct SWLANSettings &)
	?IsEasyWlan@CWLanSettings@@QAEHIAAH@Z @ 21 NONAME ; int CWLanSettings::IsEasyWlan(unsigned int, int &)
	?SetEapDataL@CWLanSettings@@QAEXABV?$RPointerArray@U_TEap@@@@@Z @ 22 NONAME ; void CWLanSettings::SetEapDataL(class RPointerArray<struct _TEap> const &)
	?WriteLanSettings@CLanSettings@@QAEHAAUSLanSettings@@@Z @ 23 NONAME ; int CLanSettings::WriteLanSettings(struct SLanSettings &)
	?WriteWlanSettings@CWLanSettings@@QAEHAAUSWLANSettings@@@Z @ 24 NONAME ; int CWLanSettings::WriteWlanSettings(struct SWLANSettings &)
	?GetEapDataL@CWLanSettings@@QAEXAAV?$RPointerArray@USEapExpandedType@@@@0@Z @ 25 NONAME ; void CWLanSettings::GetEapDataL(class RPointerArray<struct SEapExpandedType> &, class RPointerArray<struct SEapExpandedType> &)
	?SetEapDataL@CWLanSettings@@QAEXAAV?$RPointerArray@USEapExpandedType@@@@0@Z @ 26 NONAME ; void CWLanSettings::SetEapDataL(class RPointerArray<struct SEapExpandedType> &, class RPointerArray<struct SEapExpandedType> &)
	?GetWlanSettingsForIap@CWLanSettings@@QAEHKAAUSWLANSettings@@@Z @ 27 NONAME ; int CWLanSettings::GetWlanSettingsForIap(unsigned long, struct SWLANSettings &)

