EXPORTS
	??0CTestServer@@IAE@XZ @ 1 NONAME ; protected: __thiscall CTestServer::CTestServer(void)
	??0CTestSession@@QAE@XZ @ 2 NONAME ; public: __thiscall CTestSession::CTestSession(void)
	??0CTestStep@@IAE@XZ @ 3 NONAME ; protected: __thiscall CTestStep::CTestStep(void)
	??1CTestServer@@UAE@XZ @ 4 NONAME ; public: virtual __thiscall CTestServer::~CTestServer(void)
	??1CTestSession@@UAE@XZ @ 5 NONAME ; public: virtual __thiscall CTestSession::~CTestSession(void)
	??1CTestStep@@UAE@XZ @ 6 NONAME ; public: virtual __thiscall CTestStep::~CTestStep(void)
	?AbortTestStep@RTestSession@@QAEHXZ @ 7 NONAME ; public: int __thiscall RTestSession::AbortTestStep(void)
	?Close@RTestSession@@QAEXXZ @ 8 NONAME ; public: void __thiscall RTestSession::Close(void)
	?Connect@RTestServ@@QAEHABVTDesC16@@@Z @ 9 NONAME ; public: int __thiscall RTestServ::Connect(class TDesC16 const &)
	?ConstructL@CTestServer@@UAEXABVTDesC16@@@Z @ 10 NONAME ; public: virtual void __thiscall CTestServer::ConstructL(class TDesC16 const &)
	?GetBoolFromConfig@CTestStep@@QBEHABVTDesC16@@0AAH@Z @ 11 NONAME ; public: int __thiscall CTestStep::GetBoolFromConfig(class TDesC16 const &,class TDesC16 const &,int &)const 
	?GetIntFromConfig@CTestStep@@QBEHABVTDesC16@@0AAH@Z @ 12 NONAME ; public: int __thiscall CTestStep::GetIntFromConfig(class TDesC16 const &,class TDesC16 const &,int &)const 
	?GetStringFromConfig@CTestStep@@QBEHABVTDesC16@@0AAVTPtrC16@@@Z @ 13 NONAME ; public: int __thiscall CTestStep::GetStringFromConfig(class TDesC16 const &,class TDesC16 const &,class TPtrC16 &)const 
	?NewSessionL@CTestServer@@UBEPAVCSession2@@ABVTVersion@@ABVRMessage2@@@Z @ 14 NONAME ; public: virtual class CSession2 * __thiscall CTestServer::NewSessionL(class TVersion const &,class RMessage2 const &)const 
	?Open@RTestSession@@QAEHAAVRTestServ@@ABVTDesC16@@H@Z @ 15 NONAME ; public: int __thiscall RTestSession::Open(class RTestServ &,class TDesC16 const &,int)
	?RunTestStep@RTestSession@@QAEXABVTDesC16@@AAVTDes16@@AAVTRequestStatus@@@Z @ 16 NONAME ; public: void __thiscall RTestSession::RunTestStep(class TDesC16 const &,class TDes16 &,class TRequestStatus &)
	?ServerName@RTestServ@@QBEABVTDesC16@@XZ @ 17 NONAME ; public: class TDesC16 const & __thiscall RTestServ::ServerName(void)const 
	?ServiceL@CTestSession@@UAEXABVRMessage2@@@Z @ 18 NONAME ; public: virtual void __thiscall CTestSession::ServiceL(class RMessage2 const &)
	?SetTestStepName@CTestStep@@QAEXABVTDesC16@@@Z @ 19 NONAME ; public: void __thiscall CTestStep::SetTestStepName(class TDesC16 const &)
	?TestCheckPointCompareL@CTestStep@@QAEXHHABVTDesC16@@PBEH@Z @ 20 NONAME ; public: void __thiscall CTestStep::TestCheckPointCompareL(int,int,class TDesC16 const &,unsigned char const *,int)
	?doTestStepPostambleL@CTestStep@@UAE?AW4TVerdict@@XZ @ 21 NONAME ; public: virtual enum TVerdict  __thiscall CTestStep::doTestStepPostambleL(void)
	?doTestStepPreambleL@CTestStep@@UAE?AW4TVerdict@@XZ @ 22 NONAME ; public: virtual enum TVerdict  __thiscall CTestStep::doTestStepPreambleL(void)
	?testBooleanTrue@CTestStep@@QAEXHPBEH@Z @ 23 NONAME ; public: void __thiscall CTestStep::testBooleanTrue(int,unsigned char const *,int)
	?testBooleanTrue@CTestStep@@QAEXHPBEHH@Z @ 24 NONAME ; public: void __thiscall CTestStep::testBooleanTrue(int,unsigned char const *,int,int)
	?testBooleanTrueL@CTestStep@@QAEXHPBEH@Z @ 25 NONAME ; public: void __thiscall CTestStep::testBooleanTrueL(int,unsigned char const *,int)
	?testBooleanTrueL@CTestStep@@QAEXHPBEHH@Z @ 26 NONAME ; public: void __thiscall CTestStep::testBooleanTrueL(int,unsigned char const *,int,int)
	?testBooleanTrueWithErrorCode@CTestStep@@QAEXHHPBEH@Z @ 27 NONAME ; public: void __thiscall CTestStep::testBooleanTrueWithErrorCode(int,int,unsigned char const *,int)
	?testBooleanTrueWithErrorCode@CTestStep@@QAEXHHPBEHH@Z @ 28 NONAME ; public: void __thiscall CTestStep::testBooleanTrueWithErrorCode(int,int,unsigned char const *,int,int)
	?testBooleanTrueWithErrorCodeL@CTestStep@@QAEXHHPBEH@Z @ 29 NONAME ; public: void __thiscall CTestStep::testBooleanTrueWithErrorCodeL(int,int,unsigned char const *,int)
	?testBooleanTrueWithErrorCodeL@CTestStep@@QAEXHHPBEHH@Z @ 30 NONAME ; public: void __thiscall CTestStep::testBooleanTrueWithErrorCodeL(int,int,unsigned char const *,int,int)
	?GetHexFromConfig@CTestStep@@QBEHABVTDesC16@@0AAH@Z @ 31 NONAME ; public: int __thiscall CTestStep::GetHexFromConfig(class TDesC16 const &,class TDesC16 const &,int &)const 
	?GetServerName@CTestStep@@QBEABVTDesC16@@XZ @ 32 NONAME ; public: class TDesC16 const & __thiscall CTestStep::GetServerName(void)const 
	?SetTestStepError@CTestStep@@QAEXABH@Z @ 33 NONAME ; public: void __thiscall CTestStep::SetTestStepError(int const &)

