EXPORTS
	??0CTestExecuteIniData@@QAE@XZ @ 1 NONAME ; CTestExecuteIniData::CTestExecuteIniData(void)
	??0CTestExecuteLogger@@QAE@W4TLoggerOptions@@@Z @ 2 NONAME ; CTestExecuteLogger::CTestExecuteLogger(enum TLoggerOptions)
	??0CTestServer@@IAE@XZ @ 3 NONAME ; CTestServer::CTestServer(void)
	??0CTestSession@@QAE@XZ @ 4 NONAME ; CTestSession::CTestSession(void)
	??0CTestStep@@IAE@XZ @ 5 NONAME ; CTestStep::CTestStep(void)
	??1CTestExecuteIniData@@UAE@XZ @ 6 NONAME ; CTestExecuteIniData::~CTestExecuteIniData(void)
	??1CTestExecuteLogger@@UAE@XZ @ 7 NONAME ; CTestExecuteLogger::~CTestExecuteLogger(void)
	??1CTestServer@@UAE@XZ @ 8 NONAME ; CTestServer::~CTestServer(void)
	??1CTestSession@@UAE@XZ @ 9 NONAME ; CTestSession::~CTestSession(void)
	??1CTestStep@@UAE@XZ @ 10 NONAME ; CTestStep::~CTestStep(void)
	?AbortTestStep@RTestSession@@QAEHXZ @ 11 NONAME ; int RTestSession::AbortTestStep(void)
	?Close@CTestExecuteLogger@@UAEXXZ @ 12 NONAME ; void CTestExecuteLogger::Close(void)
	?Close@RTestSession@@QAEXXZ @ 13 NONAME ; void RTestSession::Close(void)
	?Connect@CTestExecuteLogger@@UAEHXZ @ 14 NONAME ; int CTestExecuteLogger::Connect(void)
	?Connect@RTestServ@@QAEHABVTDesC16@@H@Z @ 15 NONAME ; int RTestServ::Connect(class TDesC16 const &, int)
	?ConstructL@CTestExecuteIniData@@QAEXXZ @ 16 NONAME ; void CTestExecuteIniData::ConstructL(void)
	?ConstructL@CTestServer@@UAEXABVTDesC16@@@Z @ 17 NONAME ; void CTestServer::ConstructL(class TDesC16 const &)
	?ExtractValuesFromIni@CTestExecuteIniData@@QAEXXZ @ 18 NONAME ; void CTestExecuteIniData::ExtractValuesFromIni(void)
	?GetBoolFromConfig@CTestStep@@QAEHABVTDesC16@@0AAH@Z @ 19 NONAME ; int CTestStep::GetBoolFromConfig(class TDesC16 const &, class TDesC16 const &, int &)
	?GetHexFromConfig@CTestStep@@QAEHABVTDesC16@@0AAH@Z @ 20 NONAME ; int CTestStep::GetHexFromConfig(class TDesC16 const &, class TDesC16 const &, int &)
	?GetIntFromConfig@CTestStep@@QAEHABVTDesC16@@0AAH@Z @ 21 NONAME ; int CTestStep::GetIntFromConfig(class TDesC16 const &, class TDesC16 const &, int &)
	?GetKeyValueFromIni@CTestExecuteIniData@@QAEXABVTDesC16@@AAH@Z @ 22 NONAME ; void CTestExecuteIniData::GetKeyValueFromIni(class TDesC16 const &, int &)
	?GetKeyValueFromIni@CTestExecuteIniData@@QAEXABVTDesC16@@AAVTDes16@@@Z @ 23 NONAME ; void CTestExecuteIniData::GetKeyValueFromIni(class TDesC16 const &, class TDes16 &)
	?GetServerName@CTestStep@@QBEABVTDesC16@@XZ @ 24 NONAME ; class TDesC16 const & CTestStep::GetServerName(void) const
	?GetStringFromConfig@CTestStep@@QAEHABVTDesC16@@0AAVTPtrC16@@@Z @ 25 NONAME ; int CTestStep::GetStringFromConfig(class TDesC16 const &, class TDesC16 const &, class TPtrC16 &)
	?InitialiseLoggingL@CTestExecuteLogger@@UAEXABVTDesC16@@HH@Z @ 26 NONAME ; void CTestExecuteLogger::InitialiseLoggingL(class TDesC16 const &, int, int)
	?LogExtra@CTestExecuteLogger@@UAAXPBEHHV?$TRefByValue@$$CBVTDesC16@@@@ZZ @ 27 NONAME ; void CTestExecuteLogger::LogExtra(unsigned char const *, int, int, class TRefByValue<class TDesC16 const >, ...)
	?LogResult@CTestExecuteLogger@@UAEXW4TVerdict@@ABVTDesC16@@H11H@Z @ 28 NONAME ; void CTestExecuteLogger::LogResult(enum TVerdict, class TDesC16 const &, int, class TDesC16 const &, class TDesC16 const &, int)
	?LogTestCaseResult@CTestExecuteLogger@@UAEXABVTDesC16@@HH00W4TVerdict@@@Z @ 29 NONAME ; void CTestExecuteLogger::LogTestCaseResult(class TDesC16 const &, int, int, class TDesC16 const &, class TDesC16 const &, enum TVerdict)
	?LogToXml@CTestExecuteLogger@@UAEXPBEHHABVTDesC16@@@Z @ 30 NONAME ; void CTestExecuteLogger::LogToXml(unsigned char const *, int, int, class TDesC16 const &)
	?LogToXml@CTestExecuteLogger@@UAEXPBEHHABVTDesC16@@HPAUTExtraLogField@@@Z @ 31 NONAME ; void CTestExecuteLogger::LogToXml(unsigned char const *, int, int, class TDesC16 const &, int, struct TExtraLogField *)
	?NewL@CTestExecuteIniData@@SAPAV1@XZ @ 32 NONAME ; class CTestExecuteIniData * CTestExecuteIniData::NewL(void)
	?NewLC@CTestExecuteIniData@@SAPAV1@XZ @ 33 NONAME ; class CTestExecuteIniData * CTestExecuteIniData::NewLC(void)
	?NewSessionL@CTestServer@@UBEPAVCSession2@@ABVTVersion@@ABVRMessage2@@@Z @ 34 NONAME ; class CSession2 * CTestServer::NewSessionL(class TVersion const &, class RMessage2 const &) const
	?Open@RTestSession@@QAEHAAVRTestServ@@ABVTDesC16@@H@Z @ 35 NONAME ; int RTestSession::Open(class RTestServ &, class TDesC16 const &, int)
	?PrintCurrentScriptLine@CTestExecuteLogger@@UAEXAAVTDes16@@@Z @ 36 NONAME ; void CTestExecuteLogger::PrintCurrentScriptLine(class TDes16 &)
	?ReadSharedDataL@CTestStep@@QAEXABVTDesC16@@AAVTDes16@@@Z @ 37 NONAME ; void CTestStep::ReadSharedDataL(class TDesC16 const &, class TDes16 &)
	?RunTestStep@RTestSession@@QAEXABVTDesC16@@AAVTDes16@@AAVTRequestStatus@@@Z @ 38 NONAME ; void RTestSession::RunTestStep(class TDesC16 const &, class TDes16 &, class TRequestStatus &)
	?ServerName@RTestServ@@QBEABVTDesC16@@XZ @ 39 NONAME ; class TDesC16 const & RTestServ::ServerName(void) const
	?ServiceL@CTestSession@@UAEXABVRMessage2@@@Z @ 40 NONAME ; void CTestSession::ServiceL(class RMessage2 const &)
	?SetLoggerOptions@CTestExecuteLogger@@UAEXH@Z @ 41 NONAME ; void CTestExecuteLogger::SetLoggerOptions(int)
	?SetTestStepError@CTestStep@@QAEXABH@Z @ 42 NONAME ; void CTestStep::SetTestStepError(int const &)
	?SetTestStepName@CTestStep@@QAEXABVTDesC16@@@Z @ 43 NONAME ; void CTestStep::SetTestStepName(class TDesC16 const &)
	?ShareAuto@CTestExecuteLogger@@UAEHXZ @ 44 NONAME ; int CTestExecuteLogger::ShareAuto(void)
	?TerminateLoggingL@CTestExecuteLogger@@UAEXHHH@Z @ 45 NONAME ; void CTestExecuteLogger::TerminateLoggingL(int, int, int)
	?TestCheckPointCompareL@CTestStep@@QAEXHHABVTDesC16@@PBEH@Z @ 46 NONAME ; void CTestStep::TestCheckPointCompareL(int, int, class TDesC16 const &, unsigned char const *, int)
	?Write@CTestExecuteLogger@@UAEXABVTDesC16@@@Z @ 47 NONAME ; void CTestExecuteLogger::Write(class TDesC16 const &)
	?Write@CTestExecuteLogger@@UAEXABVTDesC8@@@Z @ 48 NONAME ; void CTestExecuteLogger::Write(class TDesC8 const &)
	?WriteBoolToConfig@CTestStep@@QAEHABVTDesC16@@0ABH@Z @ 49 NONAME ; int CTestStep::WriteBoolToConfig(class TDesC16 const &, class TDesC16 const &, int const &)
	?WriteFormat@CTestExecuteLogger@@UAAXV?$TRefByValue@$$CBVTDesC16@@@@ZZ @ 50 NONAME ; void CTestExecuteLogger::WriteFormat(class TRefByValue<class TDesC16 const >, ...)
	?WriteFormat@CTestExecuteLogger@@UAAXV?$TRefByValue@$$CBVTDesC8@@@@ZZ @ 51 NONAME ; void CTestExecuteLogger::WriteFormat(class TRefByValue<class TDesC8 const >, ...)
	?WriteHexToConfig@CTestStep@@QAEHABVTDesC16@@0ABH@Z @ 52 NONAME ; int CTestStep::WriteHexToConfig(class TDesC16 const &, class TDesC16 const &, int const &)
	?WriteIntToConfig@CTestStep@@QAEHABVTDesC16@@0ABH@Z @ 53 NONAME ; int CTestStep::WriteIntToConfig(class TDesC16 const &, class TDesC16 const &, int const &)
	?WriteSharedDataL@CTestStep@@QAEXABVTDesC16@@AAV2@W4TModeCopy@@@Z @ 54 NONAME ; void CTestStep::WriteSharedDataL(class TDesC16 const &, class TDesC16 &, enum TModeCopy)
	?WriteStringToConfig@CTestStep@@QAEHABVTDesC16@@0ABVTPtrC16@@@Z @ 55 NONAME ; int CTestStep::WriteStringToConfig(class TDesC16 const &, class TDesC16 const &, class TPtrC16 const &)
	?doTestStepPostambleL@CTestStep@@UAE?AW4TVerdict@@XZ @ 56 NONAME ; enum TVerdict CTestStep::doTestStepPostambleL(void)
	?doTestStepPreambleL@CTestStep@@UAE?AW4TVerdict@@XZ @ 57 NONAME ; enum TVerdict CTestStep::doTestStepPreambleL(void)
	?testBooleanTrue@CTestStep@@QAEXHPBEH@Z @ 58 NONAME ; void CTestStep::testBooleanTrue(int, unsigned char const *, int)
	?testBooleanTrue@CTestStep@@QAEXHPBEHH@Z @ 59 NONAME ; void CTestStep::testBooleanTrue(int, unsigned char const *, int, int)
	?testBooleanTrueL@CTestStep@@QAEXHPBEH@Z @ 60 NONAME ; void CTestStep::testBooleanTrueL(int, unsigned char const *, int)
	?testBooleanTrueL@CTestStep@@QAEXHPBEHH@Z @ 61 NONAME ; void CTestStep::testBooleanTrueL(int, unsigned char const *, int, int)
	?testBooleanTrueWithErrorCode@CTestStep@@QAEXHHPBEH@Z @ 62 NONAME ; void CTestStep::testBooleanTrueWithErrorCode(int, int, unsigned char const *, int)
	?testBooleanTrueWithErrorCode@CTestStep@@QAEXHHPBEHH@Z @ 63 NONAME ; void CTestStep::testBooleanTrueWithErrorCode(int, int, unsigned char const *, int, int)
	?testBooleanTrueWithErrorCodeL@CTestStep@@QAEXHHPBEH@Z @ 64 NONAME ; void CTestStep::testBooleanTrueWithErrorCodeL(int, int, unsigned char const *, int)
	?testBooleanTrueWithErrorCodeL@CTestStep@@QAEXHHPBEHH@Z @ 65 NONAME ; void CTestStep::testBooleanTrueWithErrorCodeL(int, int, unsigned char const *, int, int)
	?CheckForHeapFailNext@CTestStep@@UAEHXZ @ 66 NONAME ; int CTestStep::CheckForHeapFailNext(void)
	?ResetHeapFailNext@CTestStep@@UAEXXZ @ 67 NONAME ; void CTestStep::ResetHeapFailNext(void)
	?SetHeapFailNext@CTestStep@@UAEXH@Z @ 68 NONAME ; void CTestStep::SetHeapFailNext(int)
	?TestCaseName@CTestStep@@QAEHAAVTDes16@@@Z @ 69 NONAME ; int CTestStep::TestCaseName(class TDes16 &)
	??0CActiveCallback@@IAE@AAVMActiveCallback@@H@Z @ 70 NONAME ; CActiveCallback::CActiveCallback(class MActiveCallback &, int)
	??0CBlockActiveScheduler@CTestBlockController@@QAE@AAV1@@Z @ 71 NONAME ; CTestBlockController::CBlockActiveScheduler::CBlockActiveScheduler(class CTestBlockController &)
	??0CDataWrapper@@IAE@XZ @ 72 NONAME ; CDataWrapper::CDataWrapper(void)
	??0CTestBlockController@@QAE@XZ @ 73 NONAME ; CTestBlockController::CTestBlockController(void)
	??0CTestServer2@@QAE@XZ @ 74 NONAME ; CTestServer2::CTestServer2(void)
	??1CActiveCallback@@UAE@XZ @ 75 NONAME ; CActiveCallback::~CActiveCallback(void)
	??1CBlockActiveScheduler@CTestBlockController@@UAE@XZ @ 76 NONAME ; CTestBlockController::CBlockActiveScheduler::~CBlockActiveScheduler(void)
	??1CCommandProcessor@@UAE@XZ @ 77 NONAME ; CCommandProcessor::~CCommandProcessor(void)
	??1CDataWrapper@@UAE@XZ @ 78 NONAME ; CDataWrapper::~CDataWrapper(void)
	??1CTestBlockController@@UAE@XZ @ 79 NONAME ; CTestBlockController::~CTestBlockController(void)
	??1CTestServer2@@UAE@XZ @ 80 NONAME ; CTestServer2::~CTestServer2(void)
	?Activate@CActiveCallback@@QAEXH@Z @ 81 NONAME ; void CActiveCallback::Activate(int)
	?Activate@CCommandProcessor@@QAEXXZ @ 82 NONAME ; void CCommandProcessor::Activate(void)
	?BlockResult@CDataWrapper@@UAE?AW4TVerdict@@XZ @ 83 NONAME ; enum TVerdict CDataWrapper::BlockResult(void)
	?BlockResult@CTestBlockController@@UAE?AW4TVerdict@@XZ @ 84 NONAME ; enum TVerdict CTestBlockController::BlockResult(void)
	?CancelTimer@CTestBlockController@@AAEXXZ @ 85 NONAME ; void CTestBlockController::CancelTimer(void)
	?ConstructL@CActiveCallback@@IAEXXZ @ 86 NONAME ; void CActiveCallback::ConstructL(void)
	?ConstructL@CTestServer2@@QAEXXZ @ 87 NONAME ; void CTestServer2::ConstructL(void)
	?CreateActiveSchedulerL@CTestServer2@@UAEXXZ @ 88 NONAME ; void CTestServer2::CreateActiveSchedulerL(void)
	?CreateTestStep@CTestServer2@@UAEPAVCTestStep@@ABVTDesC16@@@Z @ 89 NONAME ; class CTestStep * CTestServer2::CreateTestStep(class TDesC16 const &)
	?DeleteActiveSchedulerL@CTestServer2@@UAEXXZ @ 90 NONAME ; void CTestServer2::DeleteActiveSchedulerL(void)
	?DoCancel@CActiveCallback@@UAEXXZ @ 91 NONAME ; void CActiveCallback::DoCancel(void)
	?DoCancel@CDataWrapper@@UAEXPAVCActive@@H@Z @ 92 NONAME ; void CDataWrapper::DoCancel(class CActive *, int)
	?DoCommandL@CTestBlockController@@MAEHAAVTTEFBlockItem@@H@Z @ 93 NONAME ; int CTestBlockController::DoCommandL(class TTEFBlockItem &, int)
	?Error@CBlockActiveScheduler@CTestBlockController@@UBEXH@Z @ 94 NONAME ; void CTestBlockController::CBlockActiveScheduler::Error(int) const
	?GetBoolFromConfig@CDataWrapper@@UAEHABVTDesC16@@0AAH@Z @ 95 NONAME ; int CDataWrapper::GetBoolFromConfig(class TDesC16 const &, class TDesC16 const &, int &)
	?GetDataObjectL@CDataWrapper@@UAEPAXABVTDesC16@@@Z @ 96 NONAME ; void * CDataWrapper::GetDataObjectL(class TDesC16 const &)
	?GetDataWrapperL@CDataWrapper@@UAEPAV1@ABVTDesC16@@@Z @ 97 NONAME ; class CDataWrapper * CDataWrapper::GetDataWrapperL(class TDesC16 const &)
	?GetHexFromConfig@CDataWrapper@@UAEHABVTDesC16@@0AAH@Z @ 98 NONAME ; int CDataWrapper::GetHexFromConfig(class TDesC16 const &, class TDesC16 const &, int &)
	?GetIntFromConfig@CDataWrapper@@UAEHABVTDesC16@@0AAH@Z @ 99 NONAME ; int CDataWrapper::GetIntFromConfig(class TDesC16 const &, class TDesC16 const &, int &)
	?GetObjectAndOwnL@CTestServer2@@UAEPAXABVTDesC16@@@Z @ 100 NONAME ; void * CTestServer2::GetObjectAndOwnL(class TDesC16 const &)
	?GetStringFromConfig@CDataWrapper@@UAEHABVTDesC16@@0AAVTPtrC16@@@Z @ 101 NONAME ; int CDataWrapper::GetStringFromConfig(class TDesC16 const &, class TDesC16 const &, class TPtrC16 &)
	?KickState@CActiveCallback@@QAEXXZ @ 102 NONAME ; void CActiveCallback::KickState(void)
	?KickState@CCommandProcessor@@QAEXXZ @ 103 NONAME ; void CCommandProcessor::KickState(void)
	?LogBlock@CTestExecuteLogger@@UAE?AW4TVerdict@@PAV?$CArrayFixFlat@VTTEFBlockItem@@@@H@Z @ 104 NONAME ; enum TVerdict CTestExecuteLogger::LogBlock(class CArrayFixFlat<class TTEFBlockItem> *, int)
	?Logger@CDataWrapper@@UAEAAVCTestExecuteLogger@@XZ @ 105 NONAME ; class CTestExecuteLogger & CDataWrapper::Logger(void)
	?NewL@CActiveCallback@@SAPAV1@AAVMActiveCallback@@H@Z @ 106 NONAME ; class CActiveCallback * CActiveCallback::NewL(class MActiveCallback &, int)
	?NewL@CCommandProcessor@@SAPAV1@AAVMCommandProcessorCallback@@H@Z @ 107 NONAME ; class CCommandProcessor * CCommandProcessor::NewL(class MCommandProcessorCallback &, int)
	?NewL@CTEFTimer@@SAPAV1@AAVMTEFTimerCallback@@H@Z @ 108 NONAME ; class CTEFTimer * CTEFTimer::NewL(class MTEFTimerCallback &, int)
	?NewLC@CActiveCallback@@SAPAV1@AAVMActiveCallback@@H@Z @ 109 NONAME ; class CActiveCallback * CActiveCallback::NewLC(class MActiveCallback &, int)
	?NewLC@CCommandProcessor@@SAPAV1@AAVMCommandProcessorCallback@@H@Z @ 110 NONAME ; class CCommandProcessor * CCommandProcessor::NewLC(class MCommandProcessorCallback &, int)
	?NextCommandL@CTestBlockController@@UAEXXZ @ 111 NONAME ; void CTestBlockController::NextCommandL(void)
	?Open@RTestSession@@QAEHAAVRTestServ@@H@Z @ 112 NONAME ; int RTestSession::Open(class RTestServ &, int)
	?OutstandingCallback@CTestBlockController@@AAEXXZ @ 113 NONAME ; void CTestBlockController::OutstandingCallback(void)
	?OutstandingCallback@CTestBlockController@@CAHPAX@Z @ 114 NONAME ; int CTestBlockController::OutstandingCallback(void *)
	?PutAndDisownL@CTestServer2@@UAEXABVTDesC16@@PAXP6AX1@Z@Z @ 115 NONAME ; void CTestServer2::PutAndDisownL(class TDesC16 const &, void *, void (*)(void *))
	?ReadSharedDataL@CDataWrapper@@UAEXABVTDesC16@@AAVTDes16@@@Z @ 116 NONAME ; void CDataWrapper::ReadSharedDataL(class TDesC16 const &, class TDes16 &)
	?RunL@CActiveCallback@@UAEXXZ @ 117 NONAME ; void CActiveCallback::RunL(void)
	?RunL@CDataWrapper@@UAEXPAVCActive@@H@Z @ 118 NONAME ; void CDataWrapper::RunL(class CActive *, int)
	?RunTestBlock@RTestSession@@QAEXABVTDesC16@@AAVTDes16@@AAVTDes8@@AAVTRequestStatus@@@Z @ 119 NONAME ; void RTestSession::RunTestBlock(class TDesC16 const &, class TDes16 &, class TDes8 &, class TRequestStatus &)
	?SetAsyncError@CDataWrapper@@UAEXHH@Z @ 120 NONAME ; void CDataWrapper::SetAsyncError(int, int)
	?SetAsyncError@CTestBlockController@@UAEXHH@Z @ 121 NONAME ; void CTestBlockController::SetAsyncError(int, int)
	?SetBlockArray@CTestBlockController@@QAEXPAV?$CArrayFixFlat@VTTEFBlockItem@@@@@Z @ 122 NONAME ; void CTestBlockController::SetBlockArray(class CArrayFixFlat<class TTEFBlockItem> *)
	?SetBlockResult@CDataWrapper@@UAEXW4TVerdict@@@Z @ 123 NONAME ; void CDataWrapper::SetBlockResult(enum TVerdict)
	?SetBlockResult@CTestBlockController@@UAEXW4TVerdict@@@Z @ 124 NONAME ; void CTestBlockController::SetBlockResult(enum TVerdict)
	?SetDataDictionary@CDataWrapper@@QAEXPAVCDataDictionary@@@Z @ 125 NONAME ; void CDataWrapper::SetDataDictionary(class CDataDictionary *)
	?SetDataObjectL@CDataWrapper@@UAEXABVTDesC16@@PAX@Z @ 126 NONAME ; void CDataWrapper::SetDataObjectL(class TDesC16 const &, void *)
	?SetError@CDataWrapper@@UAEXH@Z @ 127 NONAME ; void CDataWrapper::SetError(int)
	?SetError@CTestBlockController@@UAEXH@Z @ 128 NONAME ; void CTestBlockController::SetError(int)
	?SetSharedData@CTestBlockController@@QAEXPAVMSharedData@@@Z @ 129 NONAME ; void CTestBlockController::SetSharedData(class MSharedData *)
	?SetTestBlockController@CDataWrapper@@QAEXPAVCTestBlockController@@@Z @ 130 NONAME ; void CDataWrapper::SetTestBlockController(class CTestBlockController *)
	?StartCommands@CTestBlockController@@IAEXXZ @ 131 NONAME ; void CTestBlockController::StartCommands(void)
	?StartTimer@CTestBlockController@@AAEXABVTTEFBlockItem@@@Z @ 132 NONAME ; void CTestBlockController::StartTimer(class TTEFBlockItem const &)
	?TimerCompleted@CTestBlockController@@UAEXXZ @ 133 NONAME ; void CTestBlockController::TimerCompleted(void)
	?WriteBoolToConfig@CDataWrapper@@UAEHABVTDesC16@@0ABH@Z @ 134 NONAME ; int CDataWrapper::WriteBoolToConfig(class TDesC16 const &, class TDesC16 const &, int const &)
	?WriteHexToConfig@CDataWrapper@@UAEHABVTDesC16@@0ABH@Z @ 135 NONAME ; int CDataWrapper::WriteHexToConfig(class TDesC16 const &, class TDesC16 const &, int const &)
	?WriteIntToConfig@CDataWrapper@@UAEHABVTDesC16@@0ABH@Z @ 136 NONAME ; int CDataWrapper::WriteIntToConfig(class TDesC16 const &, class TDesC16 const &, int const &)
	?WriteSharedDataL@CDataWrapper@@UAEXABVTDesC16@@AAV2@W4TModeCopy@@@Z @ 137 NONAME ; void CDataWrapper::WriteSharedDataL(class TDesC16 const &, class TDesC16 &, enum TModeCopy)
	?WriteStringToConfig@CDataWrapper@@UAEHABVTDesC16@@0ABVTPtrC16@@@Z @ 138 NONAME ; int CDataWrapper::WriteStringToConfig(class TDesC16 const &, class TDesC16 const &, class TPtrC16 const &)
	?doTestStepL@CTestBlockController@@UAE?AW4TVerdict@@XZ @ 139 NONAME ; enum TVerdict CTestBlockController::doTestStepL(void)
	?doTestStepPostambleL@CTestBlockController@@UAE?AW4TVerdict@@XZ @ 140 NONAME ; enum TVerdict CTestBlockController::doTestStepPostambleL(void)
	?doTestStepPreambleL@CTestBlockController@@UAE?AW4TVerdict@@XZ @ 141 NONAME ; enum TVerdict CTestBlockController::doTestStepPreambleL(void)
	?NewL@CTestExecuteLogger@@SAPAV1@W4TLoggerOptions@@@Z @ 142 NONAME ; class CTestExecuteLogger * CTestExecuteLogger::NewL(enum TLoggerOptions)
	?NewLC@CTestExecuteLogger@@SAPAV1@W4TLoggerOptions@@@Z @ 143 NONAME ; class CTestExecuteLogger * CTestExecuteLogger::NewLC(enum TLoggerOptions)
	?SetLoggerChannel@CTestExecuteLogger@@QAEXH@Z @ 144 NONAME ; void CTestExecuteLogger::SetLoggerChannel(int)
	?SetPipeName@CTestExecuteLogger@@QAEXAAVTPtrC16@@@Z @ 145 NONAME ; void CTestExecuteLogger::SetPipeName(class TPtrC16 &)
	??0CTestExecuteIniData@@QAE@AAV?$TBuf@$01@@@Z @ 146 NONAME ; CTestExecuteIniData::CTestExecuteIniData(class TBuf<2> &)
	?NewL@CTestExecuteIniData@@SAPAV1@AAV?$TBuf@$01@@@Z @ 147 NONAME ; class CTestExecuteIniData * CTestExecuteIniData::NewL(class TBuf<2> &)
	?NewLC@CTestExecuteIniData@@SAPAV1@AAV?$TBuf@$01@@@Z @ 148 NONAME ; class CTestExecuteIniData * CTestExecuteIniData::NewLC(class TBuf<2> &)
	?GetIntFromConfig@CTestStep@@QAEHABVTDesC16@@0AA_J@Z @ 149 NONAME ; int CTestStep::GetIntFromConfig(class TDesC16 const &, class TDesC16 const &, long long &)
	?WriteIntToConfig@CTestStep@@QAEHABVTDesC16@@0AB_J@Z @ 150 NONAME ; int CTestStep::WriteIntToConfig(class TDesC16 const &, class TDesC16 const &, long long const &)
	?WrapperPluginNew@TEFUtils@@SAPAVCWrapperUtilsPlugin@@AAVRLibrary@@@Z @ 151 NONAME ; class CWrapperUtilsPlugin * TEFUtils::WrapperPluginNew(class RLibrary &)

