EXPORTS
	?AllocAndFreeL@TXmlEngString@@QAEPAVHBufC16@@XZ @ 1 NONAME ; class HBufC16 * TXmlEngString::AllocAndFreeL(void)
	?AllocAndFreeLC@TXmlEngString@@QAEPAVHBufC16@@XZ @ 2 NONAME ; class HBufC16 * TXmlEngString::AllocAndFreeLC(void)
	?AllocL@TXmlEngConstString@@QBEPAVHBufC16@@XZ @ 3 NONAME ; class HBufC16 * TXmlEngConstString::AllocL(void) const
	?AllocLC@TXmlEngConstString@@QBEPAVHBufC16@@XZ @ 4 NONAME ; class HBufC16 * TXmlEngConstString::AllocLC(void) const
	?AppendL@TXmlEngString@@QAEXV1@0@Z @ 5 NONAME ; void TXmlEngString::AppendL(class TXmlEngString, class TXmlEngString)
	?AppendL@TXmlEngString@@QAEXV1@@Z @ 6 NONAME ; void TXmlEngString::AppendL(class TXmlEngString)
	?Compare@TXmlEngConstString@@QBEHV1@@Z @ 7 NONAME ; int TXmlEngConstString::Compare(class TXmlEngConstString) const
	?CopyL@TXmlEngConstString@@QBEPADXZ @ 8 NONAME ; char * TXmlEngConstString::CopyL(void) const
	?Free@TXmlEngString@@QAEXXZ @ 9 NONAME ; void TXmlEngString::Free(void)
	?Length@TXmlEngConstString@@QBEIXZ @ 10 NONAME ; unsigned int TXmlEngConstString::Length(void) const
	?Set@TXmlEngString@@QAEXAAV1@@Z @ 11 NONAME ; void TXmlEngString::Set(class TXmlEngString &)
	?SetL@TXmlEngString@@QAEXABVTDesC16@@@Z @ 12 NONAME ; void TXmlEngString::SetL(class TDesC16 const &)
	?SetL@TXmlEngString@@QAEXABVTDesC8@@@Z @ 13 NONAME ; void TXmlEngString::SetL(class TDesC8 const &)
	?Size@TXmlEngConstString@@QBEIXZ @ 14 NONAME ; unsigned int TXmlEngConstString::Size(void) const
	?XmlEngEscapeForXmlValueL@@YAPADPBD@Z @ 15 NONAME ; char * XmlEngEscapeForXmlValueL(char const *)
	?XmlEngLeaveL@@YAXH@Z @ 16 NONAME ; void XmlEngLeaveL(int)
	?XmlEngLeaveOOML@@YAXXZ @ 17 NONAME ; void XmlEngLeaveOOML(void)
	?XmlEngOOMTestL@@YAXXZ @ 18 NONAME ; void XmlEngOOMTestL(void)
	?XmlEngXmlCharFromDes8L@@YAPADABVTDesC8@@@Z @ 19 NONAME ; char * XmlEngXmlCharFromDes8L(class TDesC8 const &)
	?XmlEngXmlCharFromDesL@@YAPADABVTDesC16@@@Z @ 20 NONAME ; char * XmlEngXmlCharFromDesL(class TDesC16 const &)
	?XmlEngineAttachL@@YAXXZ @ 21 NONAME ; void XmlEngineAttachL(void)
	?XmlEngineCleanup@@YAXPAX@Z @ 22 NONAME ; void XmlEngineCleanup(void *)
	?XmlEnginePopAndClose@@YAXXZ @ 23 NONAME ; void XmlEnginePopAndClose(void)
	?XmlEnginePushL@@YAXXZ @ 24 NONAME ; void XmlEnginePushL(void)

