EXPORTS
	_ZN16DSymbianUnitTest11AddTestCaseERK6TDesC8MS_FivES4_S4_ @ 1 NONAME
	_ZN16DSymbianUnitTest12AssertEqualsERK6TDesC8S2_iS2_ @ 2 NONAME
	_ZN16DSymbianUnitTest12AssertEqualsEiiiRK6TDesC8 @ 3 NONAME
	_ZN16DSymbianUnitTest15AssertionFailedERK6TDesC8iS2_ @ 4 NONAME
	_ZN16DSymbianUnitTest5SetupEv @ 5 NONAME
	_ZN16DSymbianUnitTest7RequestEiPvS0_ @ 6 NONAME
	_ZN16DSymbianUnitTest8TeardownEv @ 7 NONAME
	_ZN16DSymbianUnitTestC2Ev @ 8 NONAME
	_ZN16DSymbianUnitTestD0Ev @ 9 NONAME
	_ZN16DSymbianUnitTestD1Ev @ 10 NONAME
	_ZN16DSymbianUnitTestD2Ev @ 11 NONAME
	_ZN23DSymbianUnitTestFactory7InstallEv @ 12 NONAME
	_ZN23DSymbianUnitTestFactoryC2ERK6TDesC8 @ 13 NONAME
	_ZN23DSymbianUnitTestFactoryD0Ev @ 14 NONAME
	_ZN23DSymbianUnitTestFactoryD1Ev @ 15 NONAME
	_ZN23DSymbianUnitTestFactoryD2Ev @ 16 NONAME
	_ZNK23DSymbianUnitTestFactory7GetCapsER5TDes8 @ 17 NONAME
	_ZTI16DSymbianUnitTest @ 18 NONAME
	_ZTI23DSymbianUnitTestFactory @ 19 NONAME
	_ZTIN16DSymbianUnitTest20DSymbianUnitTestCaseE @ 20 NONAME
	_ZTV16DSymbianUnitTest @ 21 NONAME
	_ZTV23DSymbianUnitTestFactory @ 22 NONAME
	_ZTVN16DSymbianUnitTest20DSymbianUnitTestCaseE @ 23 NONAME

