EXPORTS
	_Z11XmlSecPushLv @ 1 NONAME
	_Z13XmlSecCleanupPv @ 2 NONAME
	_Z17XmlSecInitializeLv @ 3 NONAME
	_Z19XmlSecPopAndDestroyv @ 4 NONAME
	_ZN11CXmlSecSign11SetKeyInfoLE14TXmlEngElement @ 5 NONAME
	_ZN11CXmlSecSign11SetKeyInfoLERK6TDesC8 @ 6 NONAME
	_ZN11CXmlSecSign12SetTemplateLERK15RXmlEngDocument @ 7 NONAME
	_ZN11CXmlSecSign13SignXmlNodesLER6RArrayI14TXmlEngElementEi @ 8 NONAME
	_ZN11CXmlSecSign14VerifyXmlNodeLE14TXmlEngElementNS_32TXmlSecVerificationKeyRepositoryE @ 9 NONAME
	_ZN11CXmlSecSign15CreateTemplateLENS_14TXmlSecKeyTypeER6RArrayI14TXmlEngElementERK6TDesC8ijS7_i @ 10 NONAME
	_ZN11CXmlSecSign15CreateTemplateLENS_14TXmlSecKeyTypeEijRK6TDesC8i @ 11 NONAME
	_ZN11CXmlSecSign15SetKeyFromFileLERK6TDesC8S2_NS_14TXmlSecKeyTypeE @ 12 NONAME
	_ZN11CXmlSecSign16SetCertFromFileLERK6TDesC8 @ 13 NONAME
	_ZN11CXmlSecSign16SignXmlDocumentLER15RXmlEngDocumenti @ 14 NONAME
	_ZN11CXmlSecSign17SetKeyFromBufferLERK6TDesC8S2_NS_14TXmlSecKeyTypeE @ 15 NONAME
	_ZN11CXmlSecSign18SetCertFromBufferLERK6TDesC8 @ 16 NONAME
	_ZN11CXmlSecSign18VerifyXmlDocumentLERK15RXmlEngDocumentNS_32TXmlSecVerificationKeyRepositoryE @ 17 NONAME
	_ZN11CXmlSecSign20SetTemplateFromFileLER3RFsRK6TDesC8 @ 18 NONAME
	_ZN11CXmlSecSign20SetTemplateFromFileLERK6TDesC8 @ 19 NONAME
	_ZN11CXmlSecSign22DestroyCurrentTemplateEv @ 20 NONAME
	_ZN11CXmlSecSign22SetTemplateFromBufferLERK6TDesC8 @ 21 NONAME
	_ZN11CXmlSecSign23AddTrustedCertFromFileLERK6TDesC8 @ 22 NONAME
	_ZN11CXmlSecSign25AddTrustedCertFromBufferLERK6TDesC8 @ 23 NONAME
	_ZN11CXmlSecSign25VerifyXmlNodeKeyFromFileLE14TXmlEngElementRK6TDesC8S3_NS_14TXmlSecKeyTypeE @ 24 NONAME
	_ZN11CXmlSecSign27SignXmlDocumentKeyFromFileLER15RXmlEngDocumentRK6TDesC8S4_NS_14TXmlSecKeyTypeE @ 25 NONAME
	_ZN11CXmlSecSign27SignXmlDocumentKeyFromFileLER15RXmlEngDocumentS1_RK6TDesC8S4_NS_14TXmlSecKeyTypeE @ 26 NONAME
	_ZN11CXmlSecSign27VerifyXmlNodeKeyFromBufferLE14TXmlEngElementRK6TDesC8S3_NS_14TXmlSecKeyTypeE @ 27 NONAME
	_ZN11CXmlSecSign29SignXmlDocumentKeyFromBufferLER15RXmlEngDocumentRK6TDesC8S4_NS_14TXmlSecKeyTypeE @ 28 NONAME
	_ZN11CXmlSecSign29SignXmlDocumentKeyFromBufferLER15RXmlEngDocumentS1_RK6TDesC8S4_NS_14TXmlSecKeyTypeE @ 29 NONAME
	_ZN11CXmlSecSign29VerifyXmlDocumentKeyFromFileLERK15RXmlEngDocumentRK6TDesC8S5_NS_14TXmlSecKeyTypeE @ 30 NONAME
	_ZN11CXmlSecSign31VerifyXmlDocumentKeyFromBufferLERK15RXmlEngDocumentRK6TDesC8S5_NS_14TXmlSecKeyTypeE @ 31 NONAME
	_ZN11CXmlSecSign4NewLEv @ 32 NONAME
	_ZN11CXmlSecSign5NewLCEv @ 33 NONAME
	_ZN14CXmlSecEncrypt11SetKeyInfoLE14TXmlEngElement @ 34 NONAME
	_ZN14CXmlSecEncrypt11SetKeyInfoLERK6TDesC8 @ 35 NONAME
	_ZN14CXmlSecEncrypt12EncryptDataLERK6TDesC8 @ 36 NONAME
	_ZN14CXmlSecEncrypt12SetTemplateLERK15RXmlEngDocument @ 37 NONAME
	_ZN14CXmlSecEncrypt15CreateTemplateLENS_14TXmlSecKeyTypeENS_15TXmlSecDataTypeE @ 38 NONAME
	_ZN14CXmlSecEncrypt15DecryptXmlNodeLE14TXmlEngElement @ 39 NONAME
	_ZN14CXmlSecEncrypt15EncryptXmlNodeLE14TXmlEngElement @ 40 NONAME
	_ZN14CXmlSecEncrypt15SetKeyFromFileLERK6TDesC8S2_NS_14TXmlSecKeyTypeE @ 41 NONAME
	_ZN14CXmlSecEncrypt17SetKeyFromBufferLERK6TDesC8S2_NS_14TXmlSecKeyTypeE @ 42 NONAME
	_ZN14CXmlSecEncrypt19DecryptXmlDocumentLER15RXmlEngDocument @ 43 NONAME
	_ZN14CXmlSecEncrypt19EncryptXmlDocumentLER15RXmlEngDocument @ 44 NONAME
	_ZN14CXmlSecEncrypt20SetTemplateFromFileLER3RFsRK6TDesC8 @ 45 NONAME
	_ZN14CXmlSecEncrypt20SetTemplateFromFileLERK6TDesC8 @ 46 NONAME
	_ZN14CXmlSecEncrypt22DestroyCurrentTemplateEv @ 47 NONAME
	_ZN14CXmlSecEncrypt22SetTemplateFromBufferLERK6TDesC8 @ 48 NONAME
	_ZN14CXmlSecEncrypt26DecryptXmlNodeKeyFromFileLE14TXmlEngElementRK6TDesC8S3_NS_14TXmlSecKeyTypeE @ 49 NONAME
	_ZN14CXmlSecEncrypt26EncryptXmlNodeKeyFromFileLE14TXmlEngElementR15RXmlEngDocumentRK6TDesC8S5_NS_14TXmlSecKeyTypeE @ 50 NONAME
	_ZN14CXmlSecEncrypt28DecryptXmlNodeKeyFromBufferLE14TXmlEngElementRK6TDesC8S3_NS_14TXmlSecKeyTypeE @ 51 NONAME
	_ZN14CXmlSecEncrypt28EncryptXmlNodeKeyFromBufferLE14TXmlEngElementR15RXmlEngDocumentRK6TDesC8S5_NS_14TXmlSecKeyTypeE @ 52 NONAME
	_ZN14CXmlSecEncrypt30DecryptXmlDocumentKeyFromFileLER15RXmlEngDocumentRK6TDesC8S4_NS_14TXmlSecKeyTypeE @ 53 NONAME
	_ZN14CXmlSecEncrypt30EncryptXmlDocumentKeyFromFileLER15RXmlEngDocumentS1_RK6TDesC8S4_NS_14TXmlSecKeyTypeE @ 54 NONAME
	_ZN14CXmlSecEncrypt32DecryptXmlDocumentKeyFromBufferLER15RXmlEngDocumentRK6TDesC8S4_NS_14TXmlSecKeyTypeE @ 55 NONAME
	_ZN14CXmlSecEncrypt32EncryptXmlDocumentKeyFromBufferLER15RXmlEngDocumentS1_RK6TDesC8S4_NS_14TXmlSecKeyTypeE @ 56 NONAME
	_ZN14CXmlSecEncrypt4NewLEv @ 57 NONAME
	_ZN14CXmlSecEncrypt5NewLCEv @ 58 NONAME
	_ZNK11CXmlSecSign15CurrentTemplateEv @ 59 NONAME
	_ZNK14CXmlSecEncrypt15CurrentTemplateEv @ 60 NONAME
	_ZTI11CXmlSecSign @ 61 NONAME ; #<TI>#
	_ZTI14CXmlSecEncrypt @ 62 NONAME ; #<TI>#
	_ZTI17CXmlSecKeyManager @ 63 NONAME ; #<TI>#
	_ZTV11CXmlSecSign @ 64 NONAME ; #<VT>#
	_ZTV14CXmlSecEncrypt @ 65 NONAME ; #<VT>#
	_ZTV17CXmlSecKeyManager @ 66 NONAME ; #<VT>#

