EXPORTS
	_Z15NewTestSuiteUsbv @ 1 NONAME
	_ZTI13CTestOpenPort @ 2 NONAME ; #<TI>#
	_ZTI17CTestCheckSignals @ 3 NONAME ; #<TI>#
	_ZTI21CTestSetSignalsToMark @ 4 NONAME ; #<TI>#
	_ZTI22CTestNotifyStateChange @ 5 NONAME ; #<TI>#
	_ZTI22CTestSetSignalsToSpace @ 6 NONAME ; #<TI>#
	_ZTI23CTestWaitForReadFailure @ 7 NONAME ; #<TI>#
	_ZTI23CTestWaitForStateChange @ 8 NONAME ; #<TI>#
	_ZTI24CTestWaitForConfigChange @ 9 NONAME ; #<TI>#
	_ZTI24CTestWaitForWriteFailure @ 10 NONAME ; #<TI>#
	_ZTI28CTestUsbManNotifyStateChange @ 11 NONAME ; #<TI>#
	_ZTI29CTestUsbManWaitForStateChange @ 12 NONAME ; #<TI>#
	_ZTV13CTestOpenPort @ 13 NONAME ; #<VT>#
	_ZTV17CTestCheckSignals @ 14 NONAME ; #<VT>#
	_ZTV21CTestSetSignalsToMark @ 15 NONAME ; #<VT>#
	_ZTV22CTestNotifyStateChange @ 16 NONAME ; #<VT>#
	_ZTV22CTestSetSignalsToSpace @ 17 NONAME ; #<VT>#
	_ZTV23CTestWaitForReadFailure @ 18 NONAME ; #<VT>#
	_ZTV23CTestWaitForStateChange @ 19 NONAME ; #<VT>#
	_ZTV24CTestWaitForConfigChange @ 20 NONAME ; #<VT>#
	_ZTV24CTestWaitForWriteFailure @ 21 NONAME ; #<VT>#
	_ZTV28CTestUsbManNotifyStateChange @ 22 NONAME ; #<VT>#
	_ZTV29CTestUsbManWaitForStateChange @ 23 NONAME ; #<VT>#

