EXPORTS
	_Z5panicv @ 1 NONAME
	_ZN4RUsb10BusRequestEv @ 2 NONAME
	_ZN4RUsb10StopCancelEv @ 3 NONAME
	_ZN4RUsb10__DbgAllocEv @ 4 NONAME
	_ZN4RUsb11StartCancelEv @ 5 NONAME
	_ZN4RUsb12__DbgMarkEndEi @ 6 NONAME
	_ZN4RUsb13BusClearErrorEv @ 7 NONAME
	_ZN4RUsb13BusRespondSrpEv @ 8 NONAME
	_ZN4RUsb13__DbgFailNextEi @ 9 NONAME
	_ZN4RUsb13__DbgMarkHeapEv @ 10 NONAME
	_ZN4RUsb14CancelInterestENS_11TUsbReqTypeE @ 11 NONAME
	_ZN4RUsb14ClassSupportedEi4TUidRi @ 12 NONAME
	_ZN4RUsb14GetDescriptionEiRP7HBufC16 @ 13 NONAME
	_ZN4RUsb14GetDeviceStateER15TUsbDeviceState @ 14 NONAME
	_ZN4RUsb14RequestSessionEv @ 15 NONAME
	_ZN4RUsb14__DbgCheckHeapEi @ 16 NONAME
	_ZN4RUsb15GetCurrentStateER16TUsbServiceState @ 17 NONAME
	_ZN4RUsb15GetServiceStateER16TUsbServiceState @ 18 NONAME
	_ZN4RUsb16GetOtgDescriptorEjR14TOtgDescriptor @ 19 NONAME
	_ZN4RUsb17GetPersonalityIdsER6RArrayIiE @ 20 NONAME
	_ZN4RUsb17SetCtlSessionModeEi @ 21 NONAME
	_ZN4RUsb17StateNotificationEjR15TUsbDeviceStateR14TRequestStatus @ 22 NONAME
	_ZN4RUsb19GetSupportedClassesEiR6RArrayI4TUidE @ 23 NONAME
	_ZN4RUsb19MessageNotificationER14TRequestStatusRi @ 24 NONAME
	_ZN4RUsb21GetSupportedLanguagesEjR6RArrayIjE @ 25 NONAME
	_ZN4RUsb21HostEventNotificationER14TRequestStatusR23TDeviceEventInformation @ 26 NONAME
	_ZN4RUsb22GetDetailedDescriptionEiRP7HBufC16 @ 27 NONAME
	_ZN4RUsb22GetPersonalityPropertyEiRm @ 28 NONAME
	_ZN4RUsb23DeviceStateNotificationEjR15TUsbDeviceStateR14TRequestStatus @ 29 NONAME
	_ZN4RUsb23GetCurrentPersonalityIdERi @ 30 NONAME
	_ZN4RUsb23StateNotificationCancelEv @ 31 NONAME
	_ZN4RUsb24ServiceStateNotificationER16TUsbServiceStateR14TRequestStatus @ 32 NONAME
	_ZN4RUsb25MessageNotificationCancelEv @ 33 NONAME
	_ZN4RUsb26GetProductStringDescriptorEjjR4TBufILi128EE @ 34 NONAME
	_ZN4RUsb27EnableFunctionDriverLoadingEv @ 35 NONAME
	_ZN4RUsb27HostEventNotificationCancelEv @ 36 NONAME
	_ZN4RUsb28DisableFunctionDriverLoadingEv @ 37 NONAME
	_ZN4RUsb29DeviceStateNotificationCancelEv @ 38 NONAME
	_ZN4RUsb30ServiceStateNotificationCancelEv @ 39 NONAME
	_ZN4RUsb31GetManufacturerStringDescriptorEjjR4TBufILi128EE @ 40 NONAME
	_ZN4RUsb4StopER14TRequestStatus @ 41 NONAME
	_ZN4RUsb4StopEv @ 42 NONAME
	_ZN4RUsb5StartER14TRequestStatus @ 43 NONAME
	_ZN4RUsb7BusDropEv @ 44 NONAME
	_ZN4RUsb7ConnectEv @ 45 NONAME
	_ZN4RUsb7TryStopER14TRequestStatus @ 46 NONAME
	_ZN4RUsb8TryStartEiR14TRequestStatus @ 47 NONAME
	_ZN4RUsbC1Ev @ 48 NONAME
	_ZN4RUsbC2Ev @ 49 NONAME
	_ZN4RUsbD1Ev @ 50 NONAME
	_ZN4RUsbD2Ev @ 51 NONAME
	_ZNK4RUsb7VersionEv @ 52 NONAME

