EXPORTS
	_Z5panicv @ 1 NONAME
	_ZN4RUsb10StopCancelEv @ 2 NONAME
	_ZN4RUsb11StartCancelEv @ 3 NONAME
	_ZN4RUsb12__DbgMarkEndEi @ 4 NONAME
	_ZN4RUsb13__DbgFailNextEi @ 5 NONAME
	_ZN4RUsb13__DbgMarkHeapEv @ 6 NONAME
	_ZN4RUsb14GetDeviceStateER15TUsbDeviceState @ 7 NONAME
	_ZN4RUsb14__DbgCheckHeapEi @ 8 NONAME
	_ZN4RUsb15GetCurrentStateER16TUsbServiceState @ 9 NONAME
	_ZN4RUsb15GetServiceStateER16TUsbServiceState @ 10 NONAME
	_ZN4RUsb17StateNotificationEjR15TUsbDeviceStateR14TRequestStatus @ 11 NONAME
	_ZN4RUsb23DeviceStateNotificationEjR15TUsbDeviceStateR14TRequestStatus @ 12 NONAME
	_ZN4RUsb23StateNotificationCancelEv @ 13 NONAME
	_ZN4RUsb24ServiceStateNotificationER16TUsbServiceStateR14TRequestStatus @ 14 NONAME
	_ZN4RUsb29DeviceStateNotificationCancelEv @ 15 NONAME
	_ZN4RUsb30ServiceStateNotificationCancelEv @ 16 NONAME
	_ZN4RUsb4StopER14TRequestStatus @ 17 NONAME
	_ZN4RUsb4StopEv @ 18 NONAME
	_ZN4RUsb5StartER14TRequestStatus @ 19 NONAME
	_ZN4RUsb7ConnectEv @ 20 NONAME
	_ZN4RUsbC1Ev @ 21 NONAME
	_ZN4RUsbC2Ev @ 22 NONAME
	_ZN4RUsbD1Ev @ 23 NONAME
	_ZN4RUsbD2Ev @ 24 NONAME
	_ZNK4RUsb7VersionEv @ 25 NONAME
	_ZN4RUsb14CancelInterestENS_11TUsbReqTypeE @ 26 NONAME
	_ZN4RUsb14ClassSupportedEi4TUidRi @ 27 NONAME
	_ZN4RUsb14GetDescriptionEiRP7HBufC16 @ 28 NONAME
	_ZN4RUsb17GetPersonalityIdsER6RArrayIiE @ 29 NONAME
	_ZN4RUsb19GetSupportedClassesEiR6RArrayI4TUidE @ 30 NONAME
	_ZN4RUsb23GetCurrentPersonalityIdERi @ 31 NONAME
	_ZN4RUsb7TryStopER14TRequestStatus @ 32 NONAME
	_ZN4RUsb8TryStartEiR14TRequestStatus @ 33 NONAME
	_ZN4RUsb13BusRespondSrpEv @ 34 NONAME
	_ZN4RUsb10BusRequestEv @ 35 NONAME
	_ZN4RUsb17SetCtlSessionModeEi @ 36 NONAME
	_ZN4RUsb19MessageNotificationER14TRequestStatusRi @ 37 NONAME
	_ZN4RUsb21GetSupportedLanguagesEjR6RArrayIjE @ 38 NONAME
	_ZN4RUsb21HostEventNotificationER14TRequestStatusR23TDeviceEventInformation @ 39 NONAME
	_ZN4RUsb25MessageNotificationCancelEv @ 40 NONAME
	_ZN4RUsb26GetProductStringDescriptorEjjR4TBufILi128EE @ 41 NONAME
	_ZN4RUsb27EnableFunctionDriverLoadingEv @ 42 NONAME
	_ZN4RUsb27HostEventNotificationCancelEv @ 43 NONAME
	_ZN4RUsb28DisableFunctionDriverLoadingEv @ 44 NONAME
	_ZN4RUsb31GetManufacturerStringDescriptorEjjR4TBufILi128EE @ 45 NONAME
	_ZN4RUsb7BusDropEv @ 46 NONAME
	_ZN4RUsb10__DbgAllocEv @ 47 NONAME
	_ZN4RUsb14RequestSessionEv @ 48 NONAME
	_ZN4RUsb13BusClearErrorEv @ 49 NONAME
	_ZN4RUsb16GetOtgDescriptorEjR14TOtgDescriptor @ 50 NONAME
	_ZN4RUsb22GetDetailedDescriptionEiRP7HBufC16 @ 51 NONAME
	_ZN4RUsb22GetPersonalityPropertyEiRm @ 52 NONAME

